 MASs_sfun

 Timestamp is 5af40285 (Thu May 10 16:27:49 2018)

 Preferred load address is 0000000180000000

 Start         Length     Name                   Class
 0001:00000000 0002b432H .text$mn                CODE
 0001:0002b440 0000007bH .text$x                 CODE
 0002:00000000 00000478H .idata$5                DATA
 0002:00000478 00000008H .CRT$XCA                DATA
 0002:00000480 00000008H .CRT$XCZ                DATA
 0002:00000488 00000008H .CRT$XIA                DATA
 0002:00000490 00000008H .CRT$XIAA               DATA
 0002:00000498 00000008H .CRT$XIC                DATA
 0002:000004a0 00000008H .CRT$XIZ                DATA
 0002:000004b0 000007c0H .rdata                  DATA
 0002:00000c70 00000008H .rtc$IAA                DATA
 0002:00000c78 00000008H .rtc$IZZ                DATA
 0002:00000c80 00000008H .rtc$TAA                DATA
 0002:00000c88 00000008H .rtc$TZZ                DATA
 0002:00000c90 00000dccH .xdata                  DATA
 0002:00001a60 0000004fH .edata                  DATA
 0002:00001ab0 0000008cH .idata$2                DATA
 0002:00001b3c 00000014H .idata$3                DATA
 0002:00001b50 00000478H .idata$4                DATA
 0002:00001fc8 00000caeH .idata$6                DATA
 0003:00000000 00005858H .data                   DATA
 0003:00005860 000006f8H .bss                    DATA
 0004:00000000 000011e8H .pdata                  DATA

  Address         Publics by Value              Rva+Base               Lib:Object

 0000:00000000       __guard_fids_count         0000000000000000     <absolute>
 0000:00000000       ___safe_se_handler_table   0000000000000000     <absolute>
 0000:00000000       ___safe_se_handler_count   0000000000000000     <absolute>
 0000:00000000       __guard_flags              0000000000000000     <absolute>
 0000:00000000       __guard_fids_table         0000000000000000     <absolute>
 0000:00000000       __ImageBase                0000000180000000     <linker-defined>
 0001:00000000       MASs_initializer           0000000180001000 f   MASs_sfun.obj
 0001:00000010       MASs_terminator            0000000180001010 f   MASs_sfun.obj
 0001:00000020       load_MASs_optimization_info 0000000180001020 f   MASs_sfun.obj
 0001:00000070       unload_MASs_optimization_info 0000000180001070 f   MASs_sfun.obj
 0001:000000a0       sf_MASs_method_dispatcher  00000001800010a0 f   MASs_sfun.obj
 0001:00000170       sf_MASs_uses_exported_functions 0000000180001170 f   MASs_sfun.obj
 0001:000001b0       sf_MASs_process_check_sum_call 00000001800011b0 f   MASs_sfun.obj
 0001:000007c0       sf_MASs_autoinheritance_info 00000001800017c0 f   MASs_sfun.obj
 0001:00000b40       sf_MASs_get_eml_resolved_functions_info 0000000180001b40 f   MASs_sfun.obj
 0001:00000dc0       sf_MASs_third_party_uses_info 0000000180001dc0 f   MASs_sfun.obj
 0001:00001080       sf_MASs_jit_fallback_info  0000000180002080 f   MASs_sfun.obj
 0001:00001340       sf_MASs_updateBuildInfo_args_info 0000000180002340 f   MASs_sfun.obj
 0001:00001600       sf_MASs_get_post_codegen_info 0000000180002600 f   MASs_sfun.obj
 0001:00001820       MASs_debug_initialize      0000000180002820 f   MASs_sfun.obj
 0001:000018a0       MASs_register_exported_symbols 00000001800028a0 f   MASs_sfun.obj
 0001:000018b0       sf_c9_MASs_get_eml_resolved_functions_info 00000001800028b0 f   c9_MASs.obj
 0001:00001930       sf_c9_MASs_get_check_sum   0000000180002930 f   c9_MASs.obj
 0001:00001a00       c9_MASs_method_dispatcher  0000000180002a00 f   c9_MASs.obj
 0001:00006370       sf_c9_MASs_get_post_codegen_info 0000000180007370 f   c9_MASs.obj
 0001:00006440       sf_c9_MASs_get_autoinheritance_info 0000000180007440 f   c9_MASs.obj
 0001:000073e0       sf_c9_MASs_third_party_uses_info 00000001800083e0 f   c9_MASs.obj
 0001:00007410       sf_c9_MASs_jit_fallback_info 0000000180008410 f   c9_MASs.obj
 0001:000075a0       sf_c9_MASs_updateBuildInfo_args_info 00000001800085a0 f   c9_MASs.obj
 0001:00008310       sf_c16_MASs_get_eml_resolved_functions_info 0000000180009310 f   c16_MASs.obj
 0001:00008390       sf_c16_MASs_get_check_sum  0000000180009390 f   c16_MASs.obj
 0001:00008460       c16_MASs_method_dispatcher 0000000180009460 f   c16_MASs.obj
 0001:0000cdd0       sf_c16_MASs_get_post_codegen_info 000000018000ddd0 f   c16_MASs.obj
 0001:0000cea0       sf_c16_MASs_get_autoinheritance_info 000000018000dea0 f   c16_MASs.obj
 0001:0000de40       sf_c16_MASs_third_party_uses_info 000000018000ee40 f   c16_MASs.obj
 0001:0000de70       sf_c16_MASs_jit_fallback_info 000000018000ee70 f   c16_MASs.obj
 0001:0000e000       sf_c16_MASs_updateBuildInfo_args_info 000000018000f000 f   c16_MASs.obj
 0001:0000ed70       sf_c23_MASs_get_eml_resolved_functions_info 000000018000fd70 f   c23_MASs.obj
 0001:0000edf0       sf_c23_MASs_get_check_sum  000000018000fdf0 f   c23_MASs.obj
 0001:0000eec0       c23_MASs_method_dispatcher 000000018000fec0 f   c23_MASs.obj
 0001:00013830       sf_c23_MASs_get_post_codegen_info 0000000180014830 f   c23_MASs.obj
 0001:00013900       sf_c23_MASs_get_autoinheritance_info 0000000180014900 f   c23_MASs.obj
 0001:000148a0       sf_c23_MASs_third_party_uses_info 00000001800158a0 f   c23_MASs.obj
 0001:000148d0       sf_c23_MASs_jit_fallback_info 00000001800158d0 f   c23_MASs.obj
 0001:00014a60       sf_c23_MASs_updateBuildInfo_args_info 0000000180015a60 f   c23_MASs.obj
 0001:000157d0       sf_c30_MASs_get_eml_resolved_functions_info 00000001800167d0 f   c30_MASs.obj
 0001:00015850       sf_c30_MASs_get_check_sum  0000000180016850 f   c30_MASs.obj
 0001:00015920       c30_MASs_method_dispatcher 0000000180016920 f   c30_MASs.obj
 0001:0001a290       sf_c30_MASs_get_post_codegen_info 000000018001b290 f   c30_MASs.obj
 0001:0001a360       sf_c30_MASs_get_autoinheritance_info 000000018001b360 f   c30_MASs.obj
 0001:0001b300       sf_c30_MASs_third_party_uses_info 000000018001c300 f   c30_MASs.obj
 0001:0001b330       sf_c30_MASs_jit_fallback_info 000000018001c330 f   c30_MASs.obj
 0001:0001b4c0       sf_c30_MASs_updateBuildInfo_args_info 000000018001c4c0 f   c30_MASs.obj
 0001:0001c230       sf_c37_MASs_get_eml_resolved_functions_info 000000018001d230 f   c37_MASs.obj
 0001:0001c2b0       sf_c37_MASs_get_check_sum  000000018001d2b0 f   c37_MASs.obj
 0001:0001c380       c37_MASs_method_dispatcher 000000018001d380 f   c37_MASs.obj
 0001:00020cf0       sf_c37_MASs_get_post_codegen_info 0000000180021cf0 f   c37_MASs.obj
 0001:00020dc0       sf_c37_MASs_get_autoinheritance_info 0000000180021dc0 f   c37_MASs.obj
 0001:00021d60       sf_c37_MASs_third_party_uses_info 0000000180022d60 f   c37_MASs.obj
 0001:00021d90       sf_c37_MASs_jit_fallback_info 0000000180022d90 f   c37_MASs.obj
 0001:00021f20       sf_c37_MASs_updateBuildInfo_args_info 0000000180022f20 f   c37_MASs.obj
 0001:00022c90       mexFunction                0000000180023c90 f   MASs_sfun_registry.obj
 0001:00024060       _ssSetInputPortDirectFeedThroughFcn 0000000180025060 f   MASs_sfun_registry.obj
 0001:000241c0       _ssGetInputPortSignalPtrsFcn 00000001800251c0 f   MASs_sfun_registry.obj
 0001:000243e0       _ssGetInputPortSignalFcn   00000001800253e0 f   MASs_sfun_registry.obj
 0001:00024600       _ssSetInputPortReusableFcn 0000000180025600 f   MASs_sfun_registry.obj
 0001:000246e0       _ssSetOutputPortReusableFcn 00000001800256e0 f   MASs_sfun_registry.obj
 0001:000247c0       _ssSetSymbolicDimsSupport  00000001800257c0 f   MASs_sfun_registry.obj
 0001:00024830       _ssRegisterSymbolicDimsExpr 0000000180025830 f   MASs_sfun_registry.obj
 0001:000248b0       _ssRegisterSymbolicDims    00000001800258b0 f   MASs_sfun_registry.obj
 0001:00024950       _ssRegisterSymbolicDimsString 0000000180025950 f   MASs_sfun_registry.obj
 0001:000249d0       _ssRegisterSymbolicDimsIntValue 00000001800259d0 f   MASs_sfun_registry.obj
 0001:00024a40       _ssRegisterSymbolicDimsPlus 0000000180025a40 f   MASs_sfun_registry.obj
 0001:00024ac0       _ssRegisterSymbolicDimsMinus 0000000180025ac0 f   MASs_sfun_registry.obj
 0001:00024b40       _ssRegisterSymbolicDimsMultiply 0000000180025b40 f   MASs_sfun_registry.obj
 0001:00024bc0       _ssRegisterSymbolicDimsDivide 0000000180025bc0 f   MASs_sfun_registry.obj
 0001:00024c40       _ssGetNumSymbolicDims      0000000180025c40 f   MASs_sfun_registry.obj
 0001:00024cb0       _ssGetSymbolicDim          0000000180025cb0 f   MASs_sfun_registry.obj
 0001:00024d30       _ssSetInputPortSymbolicDimsId 0000000180025d30 f   MASs_sfun_registry.obj
 0001:00024da0       _ssGetCompInputPortSymbolicDimsId 0000000180025da0 f   MASs_sfun_registry.obj
 0001:00024e10       _ssSetCompInputPortSymbolicDimsId 0000000180025e10 f   MASs_sfun_registry.obj
 0001:00024e80       _ssSetOutputPortSymbolicDimsId 0000000180025e80 f   MASs_sfun_registry.obj
 0001:00024ef0       _ssGetCompOutputPortSymbolicDimsId 0000000180025ef0 f   MASs_sfun_registry.obj
 0001:00024f60       _ssSetCompOutputPortSymbolicDimsId 0000000180025f60 f   MASs_sfun_registry.obj
 0001:00024fd0       _ssSetCompDWorkSymbolicDimsId 0000000180025fd0 f   MASs_sfun_registry.obj
 0001:00025040       ssGetIsZeroCrossControlDisabled 0000000180026040 f   MASs_sfun_registry.obj
 0001:000250b0       ssSetIsInputPortUsedForContZcSignal 00000001800260b0 f   MASs_sfun_registry.obj
 0001:00025120       ssSetZcSignalIsZcElementDisc 0000000180026120 f   MASs_sfun_registry.obj
 0001:000251d0       ssSetZcSignalName          00000001800261d0 f   MASs_sfun_registry.obj
 0001:00025240       ssSetZcSignalWidth         0000000180026240 f   MASs_sfun_registry.obj
 0001:000252b0       ssSetZcSignalZcEventType   00000001800262b0 f   MASs_sfun_registry.obj
 0001:00025320       ssSetZcSignalType          0000000180026320 f   MASs_sfun_registry.obj
 0001:00025390       ssSetZcSignalZcTol         0000000180026390 f   MASs_sfun_registry.obj
 0001:00025400       ssSetZcSignalNeedsEventNotification 0000000180026400 f   MASs_sfun_registry.obj
 0001:00025470       ssCreateAndAddZcSignalInfo 0000000180026470 f   MASs_sfun_registry.obj
 0001:000254e0       ssCloneAndAddZcSignalInfo  00000001800264e0 f   MASs_sfun_registry.obj
 0001:00025550       ssGetNumZcSignals          0000000180026550 f   MASs_sfun_registry.obj
 0001:000255c0       ssGetZcSignalVector        00000001800265c0 f   MASs_sfun_registry.obj
 0001:00025630       ssGetZcSignalName          0000000180026630 f   MASs_sfun_registry.obj
 0001:000256a0       ssGetZcSignalWidth         00000001800266a0 f   MASs_sfun_registry.obj
 0001:00025710       ssGetZcSignalZcEventType   0000000180026710 f   MASs_sfun_registry.obj
 0001:00025780       ssGetZcSignalZcEvents      0000000180026780 f   MASs_sfun_registry.obj
 0001:000257f0       ssGetZcSignalType          00000001800267f0 f   MASs_sfun_registry.obj
 0001:00025860       ssGetZcSignalZcTol         0000000180026860 f   MASs_sfun_registry.obj
 0001:000258e0       ssGetZcSignalNeedsEventNotification 00000001800268e0 f   MASs_sfun_registry.obj
 0001:00025950       ssGetZcSignalIsZcElementDisc 0000000180026950 f   MASs_sfun_registry.obj
 0001:000259f0       ssGetIsInputPortElementContinuous 00000001800269f0 f   MASs_sfun_registry.obj
 0001:00025a90       ssGetDTypeIdFromMxArray    0000000180026a90 f   MASs_sfun_registry.obj
 0001:00025bb0       ssWriteRTWStr              0000000180026bb0 f   MASs_sfun_registry.obj
 0001:00025c10       ssWriteRTWNameValuePair    0000000180026c10 f   MASs_sfun_registry.obj
 0001:00026110       ssWriteRTWParamSettings    0000000180027110 f   MASs_sfun_registry.obj
 0001:00026800       ssWriteRTWParameters       0000000180027800 f   MASs_sfun_registry.obj
 0001:00026dd0       ssWriteRTWWorkVect         0000000180027dd0 f   MASs_sfun_registry.obj
 0001:000272c0       ssWriteRTWMxVectParam      00000001800282c0 f   MASs_sfun_registry.obj
 0001:00027340       ssWriteRTWMx2dMatParam     0000000180028340 f   MASs_sfun_registry.obj
 0001:000273d0       _ssSetInputPortMatrixDimensions 00000001800283d0 f   MASs_sfun_registry.obj
 0001:000274d0       _ssSetOutputPortMatrixDimensions 00000001800284d0 f   MASs_sfun_registry.obj
 0001:000275d0       _ssSetInputPortVectorDimension 00000001800285d0 f   MASs_sfun_registry.obj
 0001:00027680       _ssSetOutputPortVectorDimension 0000000180028680 f   MASs_sfun_registry.obj
 0001:00027730       ssIsRunTimeParamTunable    0000000180028730 f   MASs_sfun_registry.obj
 0001:000277a0       ssGetSFuncBlockHandle      00000001800287a0 f   MASs_sfun_registry.obj
 0001:00027810       _ssGetCurrentInputPortWidth 0000000180028810 f   MASs_sfun_registry.obj
 0001:00027930       _ssGetCurrentOutputPortWidth 0000000180028930 f   MASs_sfun_registry.obj
 0001:00027a50       _ssGetCallSystemNumFcnCallDestinations 0000000180028a50 f   MASs_sfun_registry.obj
 0001:00027ac0       ssGetParameterTuningCompliance 0000000180028ac0 f   MASs_sfun_registry.obj
 0001:00027b30       ssWarning                  0000000180028b30 f   MASs_sfun_registry.obj
 0001:00027c20       _ssGetAbsTol               0000000180028c20 f   MASs_sfun_registry.obj
 0001:00027c90       _ssSetStateAbsTol          0000000180028c90 f   MASs_sfun_registry.obj
 0001:00027d70       sf_process_check_sum_call  0000000180028d70 f   MASs_sfun_registry.obj
 0001:00027dc0       sf_process_machine_uses_exported_functions_call 0000000180028dc0 f   MASs_sfun_registry.obj
 0001:00027f70       sf_process_autoinheritance_call 0000000180028f70 f   MASs_sfun_registry.obj
 0001:000281a0       sf_process_get_third_party_uses_info_call 00000001800291a0 f   MASs_sfun_registry.obj
 0001:000283d0       sf_process_get_jit_fallback_info_call 00000001800293d0 f   MASs_sfun_registry.obj
 0001:00028600       sf_process_get_updateBuildInfo_args_info_call 0000000180029600 f   MASs_sfun_registry.obj
 0001:00028830       sf_process_get_eml_resolved_functions_info_call 0000000180029830 f   MASs_sfun_registry.obj
 0001:00028a30       sf_process_get_post_codegen_info 0000000180029a30 f   MASs_sfun_registry.obj
 0001:00028be0       sf_mex_unlock_call         0000000180029be0 f   MASs_sfun_registry.obj
 0001:00028ec0       sf_machine_global_initializer_called 0000000180029ec0 f   MASs_sfun_registry.obj
 0001:00028ef0       sf_machine_global_method_dispatcher 0000000180029ef0 f   MASs_sfun_registry.obj
 0001:00028f50       sf_machine_global_terminator 0000000180029f50 f   MASs_sfun_registry.obj
 0001:00028fa0       sf_register_machine_exported_symbols 0000000180029fa0 f   MASs_sfun_registry.obj
 0001:00028fc0       callCustomFcn              0000000180029fc0 f   MASs_sfun_registry.obj
 0001:00028fd0       sf_machine_global_initializer 0000000180029fd0 f   MASs_sfun_registry.obj
 0001:00029050       mdlGetSimState             000000018002a050 f   MASs_sfun_registry.obj
 0001:00029090       mdlSetSimState             000000018002a090 f   MASs_sfun_registry.obj
 0001:000298f0       ProcessMexSfunctionEveryCall 000000018002a8f0 f   MASs_sfun_registry.obj
 0001:0002a5f6       sf_load_rtw_optimization_info 000000018002b5f6 f   sf_runtime:sf_runtime.dll
 0001:0002a5fc       sf_debug_initialize_machine 000000018002b5fc f   sf_runtime:sf_runtime.dll
 0001:0002a602       sf_debug_set_machine_event_thresholds 000000018002b602 f   sf_runtime:sf_runtime.dll
 0001:0002a608       sf_debug_set_machine_data_thresholds 000000018002b608 f   sf_runtime:sf_runtime.dll
 0001:0002a60e       sf_init_ChartRunTimeInfo   000000018002b60e f   sf_runtime:sf_runtime.dll
 0001:0002a614       sf_free_ChartRunTimeInfo   000000018002b614 f   sf_runtime:sf_runtime.dll
 0001:0002a61a       sf_get_chart_instance_ptr  000000018002b61a f   sf_runtime:sf_runtime.dll
 0001:0002a620       sf_rtw_info_uint_prop      000000018002b620 f   sf_runtime:sf_runtime.dll
 0001:0002a626       sf_update_buildInfo        000000018002b626 f   sf_runtime:sf_runtime.dll
 0001:0002a62c       sf_is_chart_inlinable      000000018002b62c f   sf_runtime:sf_runtime.dll
 0001:0002a632       sf_mark_chart_reusable_outputs 000000018002b632 f   sf_runtime:sf_runtime.dll
 0001:0002a638       sf_mark_chart_expressionable_inputs 000000018002b638 f   sf_runtime:sf_runtime.dll
 0001:0002a63e       sim_mode_is_rtw_gen        000000018002b63e f   sf_runtime:sf_runtime.dll
 0001:0002a644       sim_mode_is_external       000000018002b644 f   sf_runtime:sf_runtime.dll
 0001:0002a64a       sf_clear_rtw_identifier    000000018002b64a f   sf_runtime:sf_runtime.dll
 0001:0002a650       sf_set_rtw_dwork_info      000000018002b650 f   sf_runtime:sf_runtime.dll
 0001:0002a656       sf_get_time                000000018002b656 f   sf_runtime:sf_runtime.dll
 0001:0002a65c       sf_is_first_init_cond      000000018002b65c f   sf_runtime:sf_runtime.dll
 0001:0002a662       sf_set_chart_accesses_machine_info 000000018002b662 f   sf_runtime:sf_runtime.dll
 0001:0002a668       sf_mex_call_debug          000000018002b668 f   sf_runtime:sf_runtime.dll
 0001:0002a66e       sf_mex_error_message       000000018002b66e f   sf_runtime:sf_runtime.dll
 0001:0002a674       sf_mex_create              000000018002b674 f   sf_runtime:sf_runtime.dll
 0001:0002a67a       sf_mex_createcellmatrix    000000018002b67a f   sf_runtime:sf_runtime.dll
 0001:0002a680       sf_mex_setcell             000000018002b680 f   sf_runtime:sf_runtime.dll
 0001:0002a686       sf_mex_getcell             000000018002b686 f   sf_runtime:sf_runtime.dll
 0001:0002a68c       sf_mex_assign              000000018002b68c f   sf_runtime:sf_runtime.dll
 0001:0002a692       sf_mex_dup                 000000018002b692 f   sf_runtime:sf_runtime.dll
 0001:0002a698       sf_mex_destroy             000000018002b698 f   sf_runtime:sf_runtime.dll
 0001:0002a69e       sf_mex_import              000000018002b69e f   sf_runtime:sf_runtime.dll
 0001:0002a6a4       sf_mex_decode_encoded_mx_struct_array 000000018002b6a4 f   sf_runtime:sf_runtime.dll
 0001:0002a6aa       ssGetInputPortSignal_wrapper 000000018002b6aa f   sf_runtime:sf_runtime.dll
 0001:0002a6b0       ssGetOutputPortSignal_wrapper 000000018002b6b0 f   sf_runtime:sf_runtime.dll
 0001:0002a6b6       sf_debug_initialize_chart  000000018002b6b6 f   sf_runtime:sf_runtime.dll
 0001:0002a6bc       sf_debug_call              000000018002b6bc f   sf_runtime:sf_runtime.dll
 0001:0002a6c2       eml_debug_line_call        000000018002b6c2 f   sf_runtime:sf_runtime.dll
 0001:0002a6c8       cv_eml_eval                000000018002b6c8 f   sf_runtime:sf_runtime.dll
 0001:0002a6ce       cv_eml_init_script         000000018002b6ce f   sf_runtime:sf_runtime.dll
 0001:0002a6d4       cv_eml_init_fcn            000000018002b6d4 f   sf_runtime:sf_runtime.dll
 0001:0002a6da       sf_debug_reset_current_state_configuration 000000018002b6da f   sf_runtime:sf_runtime.dll
 0001:0002a6e0       sf_debug_check_for_state_inconsistency 000000018002b6e0 f   sf_runtime:sf_runtime.dll
 0001:0002a6e6       sf_debug_set_chart_data_props 000000018002b6e6 f   sf_runtime:sf_runtime.dll
 0001:0002a6ec       sf_debug_set_chart_data_compiled_props 000000018002b6ec f   sf_runtime:sf_runtime.dll
 0001:0002a6f2       sf_debug_symbol_scope_push 000000018002b6f2 f   sf_runtime:sf_runtime.dll
 0001:0002a6f8       sf_debug_symbol_scope_push_eml 000000018002b6f8 f   sf_runtime:sf_runtime.dll
 0001:0002a6fe       sf_debug_symbol_scope_pop  000000018002b6fe f   sf_runtime:sf_runtime.dll
 0001:0002a704       sf_debug_symbol_scope_add_eml 000000018002b704 f   sf_runtime:sf_runtime.dll
 0001:0002a70a       sf_debug_symbol_scope_add_eml_importable 000000018002b70a f   sf_runtime:sf_runtime.dll
 0001:0002a710       sf_debug_set_instance_data_value_ptr 000000018002b710 f   sf_runtime:sf_runtime.dll
 0001:0002a716       sf_debug_set_chart_disable_implicit_casting 000000018002b716 f   sf_runtime:sf_runtime.dll
 0001:0002a71c       sf_debug_set_chart_event_thresholds 000000018002b71c f   sf_runtime:sf_runtime.dll
 0001:0002a722       sf_debug_set_chart_state_info 000000018002b722 f   sf_runtime:sf_runtime.dll
 0001:0002a728       sf_debug_set_chart_decomposition 000000018002b728 f   sf_runtime:sf_runtime.dll
 0001:0002a72e       sf_debug_set_chart_substate_count 000000018002b72e f   sf_runtime:sf_runtime.dll
 0001:0002a734       sf_debug_data_range_wrapper 000000018002b734 f   sf_runtime:sf_runtime.dll
 0001:0002a73a       sf_debug_cv_init_trans     000000018002b73a f   sf_runtime:sf_runtime.dll
 0001:0002a740       sf_debug_cv_init_chart     000000018002b740 f   sf_runtime:sf_runtime.dll
 0001:0002a746       sf_debug_cv_init_state     000000018002b746 f   sf_runtime:sf_runtime.dll
 0001:0002a74c       sf_get_ChartInfoStruct_CodeGen 000000018002b74c f   sf_runtime:sf_runtime.dll
 0001:0002a752       sf_get_isEnhancedMooreMachine 000000018002b752 f   sf_runtime:sf_runtime.dll
 0001:0002a758       sf_set_compiledInfo        000000018002b758 f   sf_runtime:sf_runtime.dll
 0001:0002a75e       callMdlMethodAndReportError 000000018002b75e f   sf_runtime:sf_runtime.dll
 0001:0002a764       call_sf_machine_global_method_dispatcher 000000018002b764 f   sf_runtime:sf_runtime.dll
 0001:0002a76a       sf_mex_error_direct_call   000000018002b76a f   sf_runtime:sf_runtime.dll
 0001:0002a770       sf_clear_error_manager_info 000000018002b770 f   sf_runtime:sf_runtime.dll
 0001:0002a776       sf_debug_create_debug_instance_struct 000000018002b776 f   sf_runtime:sf_runtime.dll
 0001:0002a77c       sf_debug_terminate         000000018002b77c f   sf_runtime:sf_runtime.dll
 0001:0002a782       sf_debug_api               000000018002b782 f   sf_runtime:sf_runtime.dll
 0001:0002a788       mxIsChar                   000000018002b788 f   libmx:libmx.dll
 0001:0002a78e       mxGetPr                    000000018002b78e f   libmx:libmx.dll
 0001:0002a794       mxGetScalar                000000018002b794 f   libmx:libmx.dll
 0001:0002a79a       mxDestroyArray             000000018002b79a f   libmx:libmx.dll
 0001:0002a7a0       mxCreateDoubleMatrix_730   000000018002b7a0 f   libmx:libmx.dll
 0001:0002a7a6       mxCreateLogicalScalar      000000018002b7a6 f   libmx:libmx.dll
 0001:0002a7ac       mxGetString_730            000000018002b7ac f   libmx:libmx.dll
 0001:0002a7b2       mxDuplicateArray           000000018002b7b2 f   libmx:libmx.dll
 0001:0002a7b8       mxSetField_730             000000018002b7b8 f   libmx:libmx.dll
 0001:0002a7be       mxCreateDoubleScalar       000000018002b7be f   libmx:libmx.dll
 0001:0002a7c4       mxCreateString             000000018002b7c4 f   libmx:libmx.dll
 0001:0002a7ca       mxCreateCellMatrix_730     000000018002b7ca f   libmx:libmx.dll
 0001:0002a7d0       mxCreateCellArray_730      000000018002b7d0 f   libmx:libmx.dll
 0001:0002a7d6       mxCreateStructMatrix_730   000000018002b7d6 f   libmx:libmx.dll
 0001:0002a7dc       mxCreateStructArray_730    000000018002b7dc f   libmx:libmx.dll
 0001:0002a7e2       mxCalloc                   000000018002b7e2 f   libmx:libmx.dll
 0001:0002a7e8       mxGetM                     000000018002b7e8 f   libmx:libmx.dll
 0001:0002a7ee       mxGetClassID               000000018002b7ee f   libmx:libmx.dll
 0001:0002a7f4       mxIsNumeric                000000018002b7f4 f   libmx:libmx.dll
 0001:0002a7fa       mxIsComplex                000000018002b7fa f   libmx:libmx.dll
 0001:0002a800       mxGetN                     000000018002b800 f   libmx:libmx.dll
 0001:0002a806       mexMakeArrayPersistent     000000018002b806 f   libmex:libmex.dll
 0001:0002a80c       mexErrMsgTxt               000000018002b80c f   libmex:libmex.dll
 0001:0002a812       mexWarnMsgTxt              000000018002b812 f   libmex:libmex.dll
 0001:0002a818       mexCallMATLABWithObject    000000018002b818 f   libmex:libmex.dll
 0001:0002a81e       mexLock                    000000018002b81e f   libmex:libmex.dll
 0001:0002a824       mexUnlock                  000000018002b824 f   libmex:libmex.dll
 0001:0002a82a       mexIsLocked                000000018002b82a f   libmex:libmex.dll
 0001:0002a830       utMalloc                   000000018002b830 f   libut:libut.dll
 0001:0002a836       utFree                     000000018002b836 f   libut:libut.dll
 0001:0002a83c       muDoubleScalarFloor        000000018002b83c f   libmwmathutil:libmwmathutil.dll
 0001:0002a842       muDoubleScalarLog10        000000018002b842 f   libmwmathutil:libmwmathutil.dll
 0001:0002a848       muDoubleScalarPower        000000018002b848 f   libmwmathutil:libmwmathutil.dll
 0001:0002a84e       muDoubleScalarSqrt         000000018002b84e f   libmwmathutil:libmwmathutil.dll
 0001:0002a854       muDoubleScalarIsNaN        000000018002b854 f   libmwmathutil:libmwmathutil.dll
 0001:0002a85c       __raise_securityfailure    000000018002b85c f   MSVCRT:gs_report.obj
 0001:0002a8a8       __report_gsfailure         000000018002b8a8 f   MSVCRT:gs_report.obj
 0001:0002a97c       __report_rangecheckfailure 000000018002b97c f   MSVCRT:gs_report.obj
 0001:0002a990       __report_securityfailure   000000018002b990 f   MSVCRT:gs_report.obj
 0001:0002aa2c       __report_securityfailureEx 000000018002ba2c f   MSVCRT:gs_report.obj
 0001:0002ab3a       strcmp                     000000018002bb3a f   MSVCRT:MSVCR120.dll
 0001:0002ab40       __GSHandlerCheck           000000018002bb40 f   MSVCRT:gshandler.obj
 0001:0002ab60       __GSHandlerCheckCommon     000000018002bb60 f   MSVCRT:gshandler.obj
 0001:0002abe0       __security_check_cookie    000000018002bbe0 f   MSVCRT:amdsecgs.obj
 0001:0002ac00       memset                     000000018002bc00 f   MSVCRT:MSVCR120.dll
 0001:0002ac06       memcpy                     000000018002bc06 f   MSVCRT:MSVCR120.dll
 0001:0002ac0c       strcat                     000000018002bc0c f   MSVCRT:MSVCR120.dll
 0001:0002ac12       strlen                     000000018002bc12 f   MSVCRT:MSVCR120.dll
 0001:0002ac18       sprintf                    000000018002bc18 f   MSVCRT:MSVCR120.dll
 0001:0002ac1e       free                       000000018002bc1e f   MSVCRT:MSVCR120.dll
 0001:0002ac24       malloc                     000000018002bc24 f   MSVCRT:MSVCR120.dll
 0001:0002ac8c       NtCurrentTeb               000000018002bc8c f i MSVCRT:crtdll.obj
 0001:0002ac98       _CRT_INIT                  000000018002bc98 f   MSVCRT:crtdll.obj
 0001:0002aee4       _DllMainCRTStartup         000000018002bee4 f   MSVCRT:crtdll.obj
 0001:0002b05a       __crt_debugger_hook        000000018002c05a f   MSVCRT:MSVCR120.dll
 0001:0002b060       __crtUnhandledException    000000018002c060 f   MSVCRT:MSVCR120.dll
 0001:0002b066       __crtTerminateProcess      000000018002c066 f   MSVCRT:MSVCR120.dll
 0001:0002b06c       __crtCaptureCurrentContext 000000018002c06c f   MSVCRT:MSVCR120.dll
 0001:0002b072       __crtCapturePreviousContext 000000018002c072 f   MSVCRT:MSVCR120.dll
 0001:0002b078       __CppXcptFilter            000000018002c078 f   MSVCRT:MSVCR120.dll
 0001:0002b07e       _amsg_exit                 000000018002c07e f   MSVCRT:MSVCR120.dll
 0001:0002b090       _FindPESection             000000018002c090 f   MSVCRT:pesect.obj
 0001:0002b0e0       _IsNonwritableInCurrentImage 000000018002c0e0 f   MSVCRT:pesect.obj
 0001:0002b130       _ValidateImageBase         000000018002c130 f   MSVCRT:pesect.obj
 0001:0002b160       __atonexitinit             000000018002c160 f   MSVCRT:atonexit.obj
 0001:0002b1b0       _onexit                    000000018002c1b0 f   MSVCRT:atonexit.obj
 0001:0002b260       atexit                     000000018002c260 f   MSVCRT:atonexit.obj
 0001:0002b278       __security_init_cookie     000000018002c278 f   MSVCRT:gs_support.obj
 0001:0002b324       DllMain                    000000018002c324 f   MSVCRT:dllmain.obj
 0001:0002b348       _malloc_crt                000000018002c348 f   MSVCRT:MSVCR120.dll
 0001:0002b350       _RTC_Initialize            000000018002c350 f   MSVCRT:initsect.obj
 0001:0002b388       _RTC_Terminate             000000018002c388 f   MSVCRT:initsect.obj
 0001:0002b3c0       _initterm                  000000018002c3c0 f   MSVCRT:MSVCR120.dll
 0001:0002b3c6       _initterm_e                000000018002c3c6 f   MSVCRT:MSVCR120.dll
 0001:0002b3cc       __clean_type_info_names    000000018002c3cc f   MSVCRT:tncleanup.obj
 0001:0002b3d8       __C_specific_handler       000000018002c3d8 f   MSVCRT:MSVCR120.dll
 0001:0002b3de       _lock                      000000018002c3de f   MSVCRT:MSVCR120.dll
 0001:0002b3e4       _unlock                    000000018002c3e4 f   MSVCRT:MSVCR120.dll
 0001:0002b3ea       _calloc_crt                000000018002c3ea f   MSVCRT:MSVCR120.dll
 0001:0002b3f0       __dllonexit                000000018002c3f0 f   MSVCRT:MSVCR120.dll
 0001:0002b3f6       __clean_type_info_names_internal 000000018002c3f6 f   MSVCRT:MSVCR120.dll
 0001:0002b3fc       IsDebuggerPresent          000000018002c3fc f   kernel32:KERNEL32.dll
 0001:0002b402       IsProcessorFeaturePresent  000000018002c402 f   kernel32:KERNEL32.dll
 0001:0002b408       EncodePointer              000000018002c408 f   kernel32:KERNEL32.dll
 0001:0002b40e       DecodePointer              000000018002c40e f   kernel32:KERNEL32.dll
 0001:0002b414       QueryPerformanceCounter    000000018002c414 f   kernel32:KERNEL32.dll
 0001:0002b41a       GetCurrentProcessId        000000018002c41a f   kernel32:KERNEL32.dll
 0001:0002b420       GetCurrentThreadId         000000018002c420 f   kernel32:KERNEL32.dll
 0001:0002b426       GetSystemTimeAsFileTime    000000018002c426 f   kernel32:KERNEL32.dll
 0001:0002b42c       DisableThreadLibraryCalls  000000018002c42c f   kernel32:KERNEL32.dll
 0002:00000000       __imp_DisableThreadLibraryCalls 000000018002d000     kernel32:KERNEL32.dll
 0002:00000008       __imp_GetSystemTimeAsFileTime 000000018002d008     kernel32:KERNEL32.dll
 0002:00000010       __imp_GetCurrentThreadId   000000018002d010     kernel32:KERNEL32.dll
 0002:00000018       __imp_GetCurrentProcessId  000000018002d018     kernel32:KERNEL32.dll
 0002:00000020       __imp_QueryPerformanceCounter 000000018002d020     kernel32:KERNEL32.dll
 0002:00000028       __imp_DecodePointer        000000018002d028     kernel32:KERNEL32.dll
 0002:00000030       __imp_EncodePointer        000000018002d030     kernel32:KERNEL32.dll
 0002:00000038       __imp_IsProcessorFeaturePresent 000000018002d038     kernel32:KERNEL32.dll
 0002:00000040       __imp_IsDebuggerPresent    000000018002d040     kernel32:KERNEL32.dll
 0002:00000048       \177KERNEL32_NULL_THUNK_DATA 000000018002d048     kernel32:KERNEL32.dll
 0002:00000050       __imp___clean_type_info_names_internal 000000018002d050     MSVCRT:MSVCR120.dll
 0002:00000058       __imp__onexit              000000018002d058     MSVCRT:MSVCR120.dll
 0002:00000060       __imp___dllonexit          000000018002d060     MSVCRT:MSVCR120.dll
 0002:00000068       __imp__calloc_crt          000000018002d068     MSVCRT:MSVCR120.dll
 0002:00000070       __imp__unlock              000000018002d070     MSVCRT:MSVCR120.dll
 0002:00000078       __imp__lock                000000018002d078     MSVCRT:MSVCR120.dll
 0002:00000080       __imp___C_specific_handler 000000018002d080     MSVCRT:MSVCR120.dll
 0002:00000088       __imp__initterm_e          000000018002d088     MSVCRT:MSVCR120.dll
 0002:00000090       __imp__initterm            000000018002d090     MSVCRT:MSVCR120.dll
 0002:00000098       __imp__malloc_crt          000000018002d098     MSVCRT:MSVCR120.dll
 0002:000000a0       __imp__amsg_exit           000000018002d0a0     MSVCRT:MSVCR120.dll
 0002:000000a8       __imp___CppXcptFilter      000000018002d0a8     MSVCRT:MSVCR120.dll
 0002:000000b0       __imp___crtCapturePreviousContext 000000018002d0b0     MSVCRT:MSVCR120.dll
 0002:000000b8       __imp___crtCaptureCurrentContext 000000018002d0b8     MSVCRT:MSVCR120.dll
 0002:000000c0       __imp___crtTerminateProcess 000000018002d0c0     MSVCRT:MSVCR120.dll
 0002:000000c8       __imp___crtUnhandledException 000000018002d0c8     MSVCRT:MSVCR120.dll
 0002:000000d0       __imp___crt_debugger_hook  000000018002d0d0     MSVCRT:MSVCR120.dll
 0002:000000d8       __imp_malloc               000000018002d0d8     MSVCRT:MSVCR120.dll
 0002:000000e0       __imp_free                 000000018002d0e0     MSVCRT:MSVCR120.dll
 0002:000000e8       __imp_sprintf              000000018002d0e8     MSVCRT:MSVCR120.dll
 0002:000000f0       __imp_strlen               000000018002d0f0     MSVCRT:MSVCR120.dll
 0002:000000f8       __imp_strcat               000000018002d0f8     MSVCRT:MSVCR120.dll
 0002:00000100       __imp_memcpy               000000018002d100     MSVCRT:MSVCR120.dll
 0002:00000108       __imp_memset               000000018002d108     MSVCRT:MSVCR120.dll
 0002:00000110       __imp_strcmp               000000018002d110     MSVCRT:MSVCR120.dll
 0002:00000118       \177MSVCR120_NULL_THUNK_DATA 000000018002d118     MSVCRT:MSVCR120.dll
 0002:00000120       __imp_mexIsLocked          000000018002d120     libmex:libmex.dll
 0002:00000128       __imp_mexErrMsgTxt         000000018002d128     libmex:libmex.dll
 0002:00000130       __imp_mexWarnMsgTxt        000000018002d130     libmex:libmex.dll
 0002:00000138       __imp_mexCallMATLABWithObject 000000018002d138     libmex:libmex.dll
 0002:00000140       __imp_mexLock              000000018002d140     libmex:libmex.dll
 0002:00000148       __imp_mexUnlock            000000018002d148     libmex:libmex.dll
 0002:00000150       __imp_mexMakeArrayPersistent 000000018002d150     libmex:libmex.dll
 0002:00000158       \177libmex_NULL_THUNK_DATA 000000018002d158     libmex:libmex.dll
 0002:00000160       __imp_muDoubleScalarLog10  000000018002d160     libmwmathutil:libmwmathutil.dll
 0002:00000168       __imp_muDoubleScalarPower  000000018002d168     libmwmathutil:libmwmathutil.dll
 0002:00000170       __imp_muDoubleScalarSqrt   000000018002d170     libmwmathutil:libmwmathutil.dll
 0002:00000178       __imp_muDoubleScalarIsNaN  000000018002d178     libmwmathutil:libmwmathutil.dll
 0002:00000180       __imp_muDoubleScalarFloor  000000018002d180     libmwmathutil:libmwmathutil.dll
 0002:00000188       \177libmwmathutil_NULL_THUNK_DATA 000000018002d188     libmwmathutil:libmwmathutil.dll
 0002:00000190       __imp_mxGetN               000000018002d190     libmx:libmx.dll
 0002:00000198       __imp_mxIsComplex          000000018002d198     libmx:libmx.dll
 0002:000001a0       __imp_mxIsNumeric          000000018002d1a0     libmx:libmx.dll
 0002:000001a8       __imp_mxGetClassID         000000018002d1a8     libmx:libmx.dll
 0002:000001b0       __imp_mxGetM               000000018002d1b0     libmx:libmx.dll
 0002:000001b8       __imp_mxCalloc             000000018002d1b8     libmx:libmx.dll
 0002:000001c0       __imp_mxCreateStructArray_730 000000018002d1c0     libmx:libmx.dll
 0002:000001c8       __imp_mxCreateStructMatrix_730 000000018002d1c8     libmx:libmx.dll
 0002:000001d0       __imp_mxCreateCellArray_730 000000018002d1d0     libmx:libmx.dll
 0002:000001d8       __imp_mxCreateCellMatrix_730 000000018002d1d8     libmx:libmx.dll
 0002:000001e0       __imp_mxCreateString       000000018002d1e0     libmx:libmx.dll
 0002:000001e8       __imp_mxCreateDoubleScalar 000000018002d1e8     libmx:libmx.dll
 0002:000001f0       __imp_mxSetField_730       000000018002d1f0     libmx:libmx.dll
 0002:000001f8       __imp_mxDuplicateArray     000000018002d1f8     libmx:libmx.dll
 0002:00000200       __imp_mxGetString_730      000000018002d200     libmx:libmx.dll
 0002:00000208       __imp_mxCreateLogicalScalar 000000018002d208     libmx:libmx.dll
 0002:00000210       __imp_mxCreateDoubleMatrix_730 000000018002d210     libmx:libmx.dll
 0002:00000218       __imp_mxIsChar             000000018002d218     libmx:libmx.dll
 0002:00000220       __imp_mxGetPr              000000018002d220     libmx:libmx.dll
 0002:00000228       __imp_mxGetScalar          000000018002d228     libmx:libmx.dll
 0002:00000230       __imp_mxDestroyArray       000000018002d230     libmx:libmx.dll
 0002:00000238       \177libmx_NULL_THUNK_DATA  000000018002d238     libmx:libmx.dll
 0002:00000240       __imp_utMalloc             000000018002d240     libut:libut.dll
 0002:00000248       __imp_utFree               000000018002d248     libut:libut.dll
 0002:00000250       \177libut_NULL_THUNK_DATA  000000018002d250     libut:libut.dll
 0002:00000258       __imp_sf_debug_create_debug_instance_struct 000000018002d258     sf_runtime:sf_runtime.dll
 0002:00000260       __imp_sf_clear_error_manager_info 000000018002d260     sf_runtime:sf_runtime.dll
 0002:00000268       __imp_sf_mex_error_direct_call 000000018002d268     sf_runtime:sf_runtime.dll
 0002:00000270       __imp_call_sf_machine_global_method_dispatcher 000000018002d270     sf_runtime:sf_runtime.dll
 0002:00000278       __imp_callMdlMethodAndReportError 000000018002d278     sf_runtime:sf_runtime.dll
 0002:00000280       __imp_sf_set_compiledInfo  000000018002d280     sf_runtime:sf_runtime.dll
 0002:00000288       __imp_sf_get_isEnhancedMooreMachine 000000018002d288     sf_runtime:sf_runtime.dll
 0002:00000290       __imp_sf_get_ChartInfoStruct_CodeGen 000000018002d290     sf_runtime:sf_runtime.dll
 0002:00000298       __imp_sf_debug_cv_init_state 000000018002d298     sf_runtime:sf_runtime.dll
 0002:000002a0       __imp_sf_debug_cv_init_chart 000000018002d2a0     sf_runtime:sf_runtime.dll
 0002:000002a8       __imp_sf_debug_cv_init_trans 000000018002d2a8     sf_runtime:sf_runtime.dll
 0002:000002b0       __imp_sf_debug_terminate   000000018002d2b0     sf_runtime:sf_runtime.dll
 0002:000002b8       __imp_sf_debug_set_chart_substate_count 000000018002d2b8     sf_runtime:sf_runtime.dll
 0002:000002c0       __imp_sf_debug_set_chart_decomposition 000000018002d2c0     sf_runtime:sf_runtime.dll
 0002:000002c8       __imp_sf_debug_set_chart_state_info 000000018002d2c8     sf_runtime:sf_runtime.dll
 0002:000002d0       __imp_sf_debug_set_chart_event_thresholds 000000018002d2d0     sf_runtime:sf_runtime.dll
 0002:000002d8       __imp_sf_debug_set_chart_disable_implicit_casting 000000018002d2d8     sf_runtime:sf_runtime.dll
 0002:000002e0       __imp_sf_debug_set_instance_data_value_ptr 000000018002d2e0     sf_runtime:sf_runtime.dll
 0002:000002e8       __imp_sf_debug_symbol_scope_add_eml_importable 000000018002d2e8     sf_runtime:sf_runtime.dll
 0002:000002f0       __imp_sf_debug_symbol_scope_add_eml 000000018002d2f0     sf_runtime:sf_runtime.dll
 0002:000002f8       __imp_sf_debug_symbol_scope_pop 000000018002d2f8     sf_runtime:sf_runtime.dll
 0002:00000300       __imp_sf_debug_symbol_scope_push_eml 000000018002d300     sf_runtime:sf_runtime.dll
 0002:00000308       __imp_sf_debug_symbol_scope_push 000000018002d308     sf_runtime:sf_runtime.dll
 0002:00000310       __imp_sf_debug_api         000000018002d310     sf_runtime:sf_runtime.dll
 0002:00000318       __imp_sf_debug_data_range_wrapper 000000018002d318     sf_runtime:sf_runtime.dll
 0002:00000320       __imp_sf_debug_set_chart_data_compiled_props 000000018002d320     sf_runtime:sf_runtime.dll
 0002:00000328       __imp_sf_debug_set_chart_data_props 000000018002d328     sf_runtime:sf_runtime.dll
 0002:00000330       __imp_sf_debug_check_for_state_inconsistency 000000018002d330     sf_runtime:sf_runtime.dll
 0002:00000338       __imp_sf_debug_reset_current_state_configuration 000000018002d338     sf_runtime:sf_runtime.dll
 0002:00000340       __imp_cv_eml_init_fcn      000000018002d340     sf_runtime:sf_runtime.dll
 0002:00000348       __imp_cv_eml_init_script   000000018002d348     sf_runtime:sf_runtime.dll
 0002:00000350       __imp_cv_eml_eval          000000018002d350     sf_runtime:sf_runtime.dll
 0002:00000358       __imp_eml_debug_line_call  000000018002d358     sf_runtime:sf_runtime.dll
 0002:00000360       __imp_sf_debug_call        000000018002d360     sf_runtime:sf_runtime.dll
 0002:00000368       __imp_sf_debug_initialize_chart 000000018002d368     sf_runtime:sf_runtime.dll
 0002:00000370       __imp_ssGetOutputPortSignal_wrapper 000000018002d370     sf_runtime:sf_runtime.dll
 0002:00000378       __imp_ssGetInputPortSignal_wrapper 000000018002d378     sf_runtime:sf_runtime.dll
 0002:00000380       __imp_sf_mex_decode_encoded_mx_struct_array 000000018002d380     sf_runtime:sf_runtime.dll
 0002:00000388       __imp_sf_mex_import        000000018002d388     sf_runtime:sf_runtime.dll
 0002:00000390       __imp_sf_mex_destroy       000000018002d390     sf_runtime:sf_runtime.dll
 0002:00000398       __imp_sf_mex_dup           000000018002d398     sf_runtime:sf_runtime.dll
 0002:000003a0       __imp_sf_mex_assign        000000018002d3a0     sf_runtime:sf_runtime.dll
 0002:000003a8       __imp_sf_mex_getcell       000000018002d3a8     sf_runtime:sf_runtime.dll
 0002:000003b0       __imp_sf_mex_setcell       000000018002d3b0     sf_runtime:sf_runtime.dll
 0002:000003b8       __imp_sf_mex_createcellmatrix 000000018002d3b8     sf_runtime:sf_runtime.dll
 0002:000003c0       __imp_sf_mex_create        000000018002d3c0     sf_runtime:sf_runtime.dll
 0002:000003c8       __imp_sf_mex_error_message 000000018002d3c8     sf_runtime:sf_runtime.dll
 0002:000003d0       __imp_sf_mex_call_debug    000000018002d3d0     sf_runtime:sf_runtime.dll
 0002:000003d8       __imp_sf_set_chart_accesses_machine_info 000000018002d3d8     sf_runtime:sf_runtime.dll
 0002:000003e0       __imp_sf_is_first_init_cond 000000018002d3e0     sf_runtime:sf_runtime.dll
 0002:000003e8       __imp_sf_get_time          000000018002d3e8     sf_runtime:sf_runtime.dll
 0002:000003f0       __imp_sf_set_rtw_dwork_info 000000018002d3f0     sf_runtime:sf_runtime.dll
 0002:000003f8       __imp_sf_clear_rtw_identifier 000000018002d3f8     sf_runtime:sf_runtime.dll
 0002:00000400       __imp_sim_mode_is_external 000000018002d400     sf_runtime:sf_runtime.dll
 0002:00000408       __imp_sim_mode_is_rtw_gen  000000018002d408     sf_runtime:sf_runtime.dll
 0002:00000410       __imp_sf_mark_chart_expressionable_inputs 000000018002d410     sf_runtime:sf_runtime.dll
 0002:00000418       __imp_sf_mark_chart_reusable_outputs 000000018002d418     sf_runtime:sf_runtime.dll
 0002:00000420       __imp_sf_is_chart_inlinable 000000018002d420     sf_runtime:sf_runtime.dll
 0002:00000428       __imp_sf_update_buildInfo  000000018002d428     sf_runtime:sf_runtime.dll
 0002:00000430       __imp_sf_rtw_info_uint_prop 000000018002d430     sf_runtime:sf_runtime.dll
 0002:00000438       __imp_sf_get_chart_instance_ptr 000000018002d438     sf_runtime:sf_runtime.dll
 0002:00000440       __imp_sf_free_ChartRunTimeInfo 000000018002d440     sf_runtime:sf_runtime.dll
 0002:00000448       __imp_sf_init_ChartRunTimeInfo 000000018002d448     sf_runtime:sf_runtime.dll
 0002:00000450       __imp_sf_debug_set_machine_data_thresholds 000000018002d450     sf_runtime:sf_runtime.dll
 0002:00000458       __imp_sf_debug_set_machine_event_thresholds 000000018002d458     sf_runtime:sf_runtime.dll
 0002:00000460       __imp_sf_debug_initialize_machine 000000018002d460     sf_runtime:sf_runtime.dll
 0002:00000468       __imp_sf_load_rtw_optimization_info 000000018002d468     sf_runtime:sf_runtime.dll
 0002:00000470       \177sf_runtime_NULL_THUNK_DATA 000000018002d470     sf_runtime:sf_runtime.dll
 0002:00000478       __xc_a                     000000018002d478     MSVCRT:cinitexe.obj
 0002:00000480       __xc_z                     000000018002d480     MSVCRT:cinitexe.obj
 0002:00000488       __xi_a                     000000018002d488     MSVCRT:cinitexe.obj
 0002:000004a0       __xi_z                     000000018002d4a0     MSVCRT:cinitexe.obj
 0002:000004b0       __real@41cbbee9b5000000    000000018002d4b0     MASs_sfun.obj
 0002:000004b8       __real@41d0f27f3a400000    000000018002d4b8     MASs_sfun.obj
 0002:000004c0       __real@41d51a379d000000    000000018002d4c0     MASs_sfun.obj
 0002:000004c8       __real@41d9a0a477800000    000000018002d4c8     MASs_sfun.obj
 0002:000004d0       __real@41db71f187c00000    000000018002d4d0     MASs_sfun.obj
 0002:000004d8       __real@41e0999a1b800000    000000018002d4d8     MASs_sfun.obj
 0002:000004e0       __real@41e6787ce6600000    000000018002d4e0     MASs_sfun.obj
 0002:000004e8       __real@41e6fb8be6400000    000000018002d4e8     MASs_sfun.obj
 0002:000004f0       __real@41e954acc5a00000    000000018002d4f0     MASs_sfun.obj
 0002:000004f8       __real@41ebbfa3aba00000    000000018002d4f8     MASs_sfun.obj
 0002:00000500       __real@41ecabae85600000    000000018002d500     MASs_sfun.obj
 0002:00000508       __real@41ee2725ed000000    000000018002d508     MASs_sfun.obj
 0002:00000510       __real@3eb2184b4561aab3    000000018002d510     c9_MASs.obj
 0002:00000518       __real@3f23a92a30553261    000000018002d518     c9_MASs.obj
 0002:00000520       __real@3fb3333333333333    000000018002d520     c9_MASs.obj
 0002:00000528       __real@3fd147ae147ae148    000000018002d528     c9_MASs.obj
 0002:00000530       __real@3fd5555555555555    000000018002d530     c9_MASs.obj
 0002:00000538       __real@3fe0000000000000    000000018002d538     c9_MASs.obj
 0002:00000540       __real@3fe147ae147ae148    000000018002d540     c9_MASs.obj
 0002:00000548       __real@3fe47ae147ae147b    000000018002d548     c9_MASs.obj
 0002:00000550       __real@3fe570a3d70a3d71    000000018002d550     c9_MASs.obj
 0002:00000558       __real@3fe63d70a3d70a3e    000000018002d558     c9_MASs.obj
 0002:00000560       __real@3fe70a3d70a3d70a    000000018002d560     c9_MASs.obj
 0002:00000568       __real@3fe921fb54442d18    000000018002d568     c9_MASs.obj
 0002:00000570       __real@3ff0000000000000    000000018002d570     c9_MASs.obj
 0002:00000578       __real@3ff6666666666666    000000018002d578     c9_MASs.obj
 0002:00000580       __real@3ff921fb54442d18    000000018002d580     c9_MASs.obj
 0002:00000588       __real@4000000000000000    000000018002d588     c9_MASs.obj
 0002:00000590       __real@4008000000000000    000000018002d590     c9_MASs.obj
 0002:00000598       __real@40091eb851eb851f    000000018002d598     c9_MASs.obj
 0002:000005a0       __real@4020000000000000    000000018002d5a0     c9_MASs.obj
 0002:000005a8       __real@4024000000000000    000000018002d5a8     c9_MASs.obj
 0002:000005b0       __real@405a400000000000    000000018002d5b0     c9_MASs.obj
 0002:000005b8       __real@408f400000000000    000000018002d5b8     c9_MASs.obj
 0002:000005c0       __real@4090040000000000    000000018002d5c0     c9_MASs.obj
 0002:000005c8       __real@419459ebd4000000    000000018002d5c8     c9_MASs.obj
 0002:000005d0       __real@41cdc77529000000    000000018002d5d0     c9_MASs.obj
 0002:000005d8       __real@41d5bfa2dfc00000    000000018002d5d8     c9_MASs.obj
 0002:000005e0       __real@41eb0e6a90a00000    000000018002d5e0     c9_MASs.obj
 0002:000005e8       __real@bf9619c8bf8a211e    000000018002d5e8     c9_MASs.obj
 0002:000005f0       __real@bfa8addbe6f3d82f    000000018002d5f0     c9_MASs.obj
 0002:000005f8       __real@bfa9999999999990    000000018002d5f8     c9_MASs.obj
 0002:00000600       __real@bfad77b654b82c28    000000018002d600     c9_MASs.obj
 0002:00000608       __real@bfb26ad1f4f31b99    000000018002d608     c9_MASs.obj
 0002:00000610       __real@bfe0000000000000    000000018002d610     c9_MASs.obj
 0002:00000618       __real@c008000000000000    000000018002d618     c9_MASs.obj
 0002:00000620       __xmm@80000000000000008000000000000000 000000018002d620     c9_MASs.obj
 0002:00000630       DYNAMIC_DIMENSION_DEF      000000018002d630     MASs_sfun_registry.obj
 0002:00000650       _ssBadLevel2InputAccessMsg 000000018002d650     MASs_sfun_registry.obj
 0002:000007e0       _ssBadLevel2DirectFeedMsg  000000018002d7e0     MASs_sfun_registry.obj
 0002:00000920       _ssBadLevel2DirectFeedSolutionMsg 000000018002d920     MASs_sfun_registry.obj
 0002:00000990       _ssBadLevel2ZeroDirectFeedMsg 000000018002d990     MASs_sfun_registry.obj
 0002:00000ad0       _ssBadLevel2ZeroDirectFeedMsg2 000000018002dad0     MASs_sfun_registry.obj
 0002:00000bb8       __real@0000000000000000    000000018002dbb8     MASs_sfun_registry.obj
 0002:00000bc0       __real@41602cbca0000000    000000018002dbc0     MASs_sfun_registry.obj
 0002:00000bc8       __real@bff0000000000000    000000018002dbc8     MASs_sfun_registry.obj
 0002:00000be0       _pRawDllMain               000000018002dbe0     MSVCRT:crtdll.obj
 0002:00000be0       _pDefaultRawDllMain        000000018002dbe0     MSVCRT:crtdll.obj
 0002:00000be8       ?ProcessDetach@NativeDll@<CrtImplementationDetails>@@0IB 000000018002dbe8     MSVCRT:initsect.obj
 0002:00000bec       ?ProcessAttach@NativeDll@<CrtImplementationDetails>@@0IB 000000018002dbec     MSVCRT:initsect.obj
 0002:00000bf0       ?ThreadAttach@NativeDll@<CrtImplementationDetails>@@0IB 000000018002dbf0     MSVCRT:initsect.obj
 0002:00000bf4       ?ThreadDetach@NativeDll@<CrtImplementationDetails>@@0IB 000000018002dbf4     MSVCRT:initsect.obj
 0002:00000bf8       ?ProcessVerifier@NativeDll@<CrtImplementationDetails>@@0IB 000000018002dbf8     MSVCRT:initsect.obj
 0002:00000bfc       ?value@?$integral_constant@_N$0A@@std@@2_NB 000000018002dbfc     MSVCRT:tncleanup.obj
 0002:00000bfd       ?value@?$integral_constant@_N$00@std@@2_NB 000000018002dbfd     MSVCRT:tncleanup.obj
 0002:00000c00       _load_config_used          000000018002dc00     MSVCRT:loadcfg.obj
 0002:00000c70       __rtc_iaa                  000000018002dc70     MSVCRT:initsect.obj
 0002:00000c78       __rtc_izz                  000000018002dc78     MSVCRT:initsect.obj
 0002:00000c80       __rtc_taa                  000000018002dc80     MSVCRT:initsect.obj
 0002:00000c88       __rtc_tzz                  000000018002dc88     MSVCRT:initsect.obj
 0002:00001ab0       __IMPORT_DESCRIPTOR_sf_runtime 000000018002eab0     sf_runtime:sf_runtime.dll
 0002:00001ac4       __IMPORT_DESCRIPTOR_libmx  000000018002eac4     libmx:libmx.dll
 0002:00001ad8       __IMPORT_DESCRIPTOR_libmex 000000018002ead8     libmex:libmex.dll
 0002:00001aec       __IMPORT_DESCRIPTOR_libut  000000018002eaec     libut:libut.dll
 0002:00001b00       __IMPORT_DESCRIPTOR_libmwmathutil 000000018002eb00     libmwmathutil:libmwmathutil.dll
 0002:00001b14       __IMPORT_DESCRIPTOR_MSVCR120 000000018002eb14     MSVCRT:MSVCR120.dll
 0002:00001b28       __IMPORT_DESCRIPTOR_KERNEL32 000000018002eb28     kernel32:KERNEL32.dll
 0002:00001b3c       __NULL_IMPORT_DESCRIPTOR   000000018002eb3c     sf_runtime:sf_runtime.dll
 0003:00005008       DYNAMIC_DIMENSION          0000000180035008     MASs_sfun_registry.obj
 0003:00005840       __security_cookie          0000000180035840     MSVCRT:gs_cookie.obj
 0003:00005848       __security_cookie_complement 0000000180035848     MSVCRT:gs_cookie.obj
 0003:00005850       _fltused                   0000000180035850     MSVCRT:dllsupp.obj
 0003:00005854       __native_dllmain_reason    0000000180035854     MSVCRT:natstart.obj
 0003:000058c8       sfGlobalDebugInstanceStruct 00000001800358c8     MASs_sfun_registry.obj
 0003:00005f18       ?__type_info_root_node@@3U__type_info_node@@A 0000000180035f18     MSVCRT:tncleanup.obj
 0003:00005f28       _MASsMachineNumber_        0000000180035f28     <common>
 0003:00005f30       __native_startup_lock      0000000180035f30     <common>
 0003:00005f38       __native_startup_state     0000000180035f38     <common>
 0003:00005f40       __onexitend                0000000180035f40     <common>
 0003:00005f48       __onexitbegin              0000000180035f48     <common>
 0003:00005f50       __dyn_tls_init_callback    0000000180035f50     <common>

 entry point at        0001:0002aee4

 Static symbols

 0000:00000000       .debug$S                   0000000180000000     sf_runtime:sf_runtime.dll
 0000:00000000       .debug$S                   0000000180000000     sf_runtime:sf_runtime.dll
 0000:00000000       .debug$S                   0000000180000000     sf_runtime:sf_runtime.dll
 0000:00000000       .debug$S                   0000000180000000     sf_runtime:sf_runtime.dll
 0000:00000000       .debug$S                   0000000180000000     sf_runtime:sf_runtime.dll
 0000:00000000       .debug$S                   0000000180000000     sf_runtime:sf_runtime.dll
 0000:00000000       .debug$S                   0000000180000000     kernel32:KERNEL32.dll
 0000:00000000       .debug$S                   0000000180000000     kernel32:KERNEL32.dll
 0000:00000000       .debug$S                   0000000180000000     kernel32:KERNEL32.dll
 0000:00000000       .debug$S                   0000000180000000     kernel32:KERNEL32.dll
 0000:00000000       .debug$S                   0000000180000000     kernel32:KERNEL32.dll
 0000:00000000       .debug$S                   0000000180000000     kernel32:KERNEL32.dll
 0000:00000000       .debug$S                   0000000180000000     kernel32:KERNEL32.dll
 0000:00000000       .debug$S                   0000000180000000     kernel32:KERNEL32.dll
 0000:00000000       .debug$S                   0000000180000000     kernel32:KERNEL32.dll
 0000:00000000       .debug$S                   0000000180000000     MSVCRT:MSVCR120.dll
 0000:00000000       .debug$S                   0000000180000000     MSVCRT:MSVCR120.dll
 0000:00000000       .debug$S                   0000000180000000     MSVCRT:MSVCR120.dll
 0000:00000000       .debug$S                   0000000180000000     MSVCRT:MSVCR120.dll
 0000:00000000       .debug$S                   0000000180000000     MSVCRT:MSVCR120.dll
 0000:00000000       .debug$S                   0000000180000000     MSVCRT:MSVCR120.dll
 0000:00000000       .debug$S                   0000000180000000     MSVCRT:MSVCR120.dll
 0000:00000000       .debug$S                   0000000180000000     MSVCRT:MSVCR120.dll
 0000:00000000       .debug$S                   0000000180000000     MSVCRT:MSVCR120.dll
 0000:00000000       .debug$S                   0000000180000000     MSVCRT:MSVCR120.dll
 0000:00000000       .debug$S                   0000000180000000     MSVCRT:MSVCR120.dll
 0000:00000000       .debug$S                   0000000180000000     MSVCRT:MSVCR120.dll
 0000:00000000       .debug$S                   0000000180000000     MSVCRT:MSVCR120.dll
 0000:00000000       .debug$S                   0000000180000000     MSVCRT:MSVCR120.dll
 0000:00000000       .debug$S                   0000000180000000     MSVCRT:MSVCR120.dll
 0000:00000000       .debug$S                   0000000180000000     MSVCRT:MSVCR120.dll
 0000:00000000       .debug$S                   0000000180000000     MSVCRT:MSVCR120.dll
 0000:00000000       .debug$S                   0000000180000000     MSVCRT:MSVCR120.dll
 0000:00000000       .debug$S                   0000000180000000     MSVCRT:MSVCR120.dll
 0000:00000000       .debug$S                   0000000180000000     MSVCRT:MSVCR120.dll
 0000:00000000       .debug$S                   0000000180000000     MSVCRT:MSVCR120.dll
 0000:00000000       .debug$S                   0000000180000000     MSVCRT:MSVCR120.dll
 0000:00000000       .debug$S                   0000000180000000     MSVCRT:MSVCR120.dll
 0000:00000000       .debug$S                   0000000180000000     MSVCRT:MSVCR120.dll
 0000:00000000       .debug$S                   0000000180000000     MSVCRT:MSVCR120.dll
 0000:00000000       .debug$S                   0000000180000000     sf_runtime:sf_runtime.dll
 0000:00000000       .debug$S                   0000000180000000     sf_runtime:sf_runtime.dll
 0000:00000000       .debug$S                   0000000180000000     sf_runtime:sf_runtime.dll
 0000:00000000       .debug$S                   0000000180000000     sf_runtime:sf_runtime.dll
 0000:00000000       .debug$S                   0000000180000000     sf_runtime:sf_runtime.dll
 0000:00000000       .debug$S                   0000000180000000     sf_runtime:sf_runtime.dll
 0000:00000000       .debug$S                   0000000180000000     sf_runtime:sf_runtime.dll
 0000:00000000       .debug$S                   0000000180000000     sf_runtime:sf_runtime.dll
 0000:00000000       .debug$S                   0000000180000000     sf_runtime:sf_runtime.dll
 0000:00000000       .debug$S                   0000000180000000     sf_runtime:sf_runtime.dll
 0000:00000000       .debug$S                   0000000180000000     sf_runtime:sf_runtime.dll
 0000:00000000       .debug$S                   0000000180000000     sf_runtime:sf_runtime.dll
 0000:00000000       .debug$S                   0000000180000000     sf_runtime:sf_runtime.dll
 0000:00000000       .debug$S                   0000000180000000     sf_runtime:sf_runtime.dll
 0000:00000000       .debug$S                   0000000180000000     sf_runtime:sf_runtime.dll
 0000:00000000       .debug$S                   0000000180000000     sf_runtime:sf_runtime.dll
 0000:00000000       .debug$S                   0000000180000000     sf_runtime:sf_runtime.dll
 0000:00000000       .debug$S                   0000000180000000     sf_runtime:sf_runtime.dll
 0000:00000000       .debug$S                   0000000180000000     sf_runtime:sf_runtime.dll
 0000:00000000       .debug$S                   0000000180000000     sf_runtime:sf_runtime.dll
 0000:00000000       .debug$S                   0000000180000000     sf_runtime:sf_runtime.dll
 0000:00000000       .debug$S                   0000000180000000     sf_runtime:sf_runtime.dll
 0000:00000000       .debug$S                   0000000180000000     sf_runtime:sf_runtime.dll
 0000:00000000       .debug$S                   0000000180000000     sf_runtime:sf_runtime.dll
 0000:00000000       .debug$S                   0000000180000000     sf_runtime:sf_runtime.dll
 0000:00000000       .debug$S                   0000000180000000     sf_runtime:sf_runtime.dll
 0000:00000000       .debug$S                   0000000180000000     sf_runtime:sf_runtime.dll
 0000:00000000       .debug$S                   0000000180000000     sf_runtime:sf_runtime.dll
 0000:00000000       .debug$S                   0000000180000000     sf_runtime:sf_runtime.dll
 0000:00000000       .debug$S                   0000000180000000     sf_runtime:sf_runtime.dll
 0000:00000000       .debug$S                   0000000180000000     sf_runtime:sf_runtime.dll
 0000:00000000       .debug$S                   0000000180000000     sf_runtime:sf_runtime.dll
 0000:00000000       .debug$S                   0000000180000000     sf_runtime:sf_runtime.dll
 0000:00000000       .debug$S                   0000000180000000     sf_runtime:sf_runtime.dll
 0000:00000000       .debug$S                   0000000180000000     sf_runtime:sf_runtime.dll
 0000:00000000       .debug$S                   0000000180000000     sf_runtime:sf_runtime.dll
 0000:00000000       .debug$S                   0000000180000000     libmwmathutil:libmwmathutil.dll
 0000:00000000       .debug$S                   0000000180000000     libmwmathutil:libmwmathutil.dll
 0000:00000000       .debug$S                   0000000180000000     libmwmathutil:libmwmathutil.dll
 0000:00000000       .debug$S                   0000000180000000     libmwmathutil:libmwmathutil.dll
 0000:00000000       .debug$S                   0000000180000000     libmwmathutil:libmwmathutil.dll
 0000:00000000       .debug$S                   0000000180000000     libmx:libmx.dll
 0000:00000000       .debug$S                   0000000180000000     libut:libut.dll
 0000:00000000       .debug$S                   0000000180000000     libut:libut.dll
 0000:00000000       .debug$S                   0000000180000000     sf_runtime:sf_runtime.dll
 0000:00000000       .debug$S                   0000000180000000     libmex:libmex.dll
 0000:00000000       .debug$S                   0000000180000000     libmex:libmex.dll
 0000:00000000       .debug$S                   0000000180000000     libmex:libmex.dll
 0000:00000000       .debug$S                   0000000180000000     libmex:libmex.dll
 0000:00000000       .debug$S                   0000000180000000     libmex:libmex.dll
 0000:00000000       .debug$S                   0000000180000000     libmex:libmex.dll
 0000:00000000       .debug$S                   0000000180000000     libmex:libmex.dll
 0000:00000000       .debug$S                   0000000180000000     libmx:libmx.dll
 0000:00000000       .debug$S                   0000000180000000     libmx:libmx.dll
 0000:00000000       .debug$S                   0000000180000000     libmx:libmx.dll
 0000:00000000       .debug$S                   0000000180000000     libmx:libmx.dll
 0000:00000000       .debug$S                   0000000180000000     libmx:libmx.dll
 0000:00000000       .debug$S                   0000000180000000     libmx:libmx.dll
 0000:00000000       .debug$S                   0000000180000000     libmx:libmx.dll
 0000:00000000       .debug$S                   0000000180000000     libmx:libmx.dll
 0000:00000000       .debug$S                   0000000180000000     libmx:libmx.dll
 0000:00000000       .debug$S                   0000000180000000     libmx:libmx.dll
 0000:00000000       .debug$S                   0000000180000000     libmx:libmx.dll
 0000:00000000       .debug$S                   0000000180000000     libmx:libmx.dll
 0000:00000000       .debug$S                   0000000180000000     sf_runtime:sf_runtime.dll
 0000:00000000       .debug$S                   0000000180000000     sf_runtime:sf_runtime.dll
 0000:00000000       .debug$S                   0000000180000000     sf_runtime:sf_runtime.dll
 0000:00000000       .debug$S                   0000000180000000     libmx:libmx.dll
 0000:00000000       .debug$S                   0000000180000000     sf_runtime:sf_runtime.dll
 0000:00000000       .debug$S                   0000000180000000     libmx:libmx.dll
 0000:00000000       .debug$S                   0000000180000000     sf_runtime:sf_runtime.dll
 0000:00000000       .debug$S                   0000000180000000     sf_runtime:sf_runtime.dll
 0000:00000000       .debug$S                   0000000180000000     sf_runtime:sf_runtime.dll
 0000:00000000       .debug$S                   0000000180000000     libmx:libmx.dll
 0000:00000000       .debug$S                   0000000180000000     sf_runtime:sf_runtime.dll
 0000:00000000       .debug$S                   0000000180000000     libmx:libmx.dll
 0000:00000000       .debug$S                   0000000180000000     sf_runtime:sf_runtime.dll
 0000:00000000       .debug$S                   0000000180000000     sf_runtime:sf_runtime.dll
 0000:00000000       .debug$S                   0000000180000000     sf_runtime:sf_runtime.dll
 0000:00000000       .debug$S                   0000000180000000     libmx:libmx.dll
 0000:00000000       .debug$S                   0000000180000000     sf_runtime:sf_runtime.dll
 0000:00000000       .debug$S                   0000000180000000     libmx:libmx.dll
 0000:00000000       .debug$S                   0000000180000000     sf_runtime:sf_runtime.dll
 0000:00000000       .debug$S                   0000000180000000     sf_runtime:sf_runtime.dll
 0000:00000000       .debug$S                   0000000180000000     sf_runtime:sf_runtime.dll
 0000:00000000       .debug$S                   0000000180000000     libmx:libmx.dll
 0000:00000000       .debug$S                   0000000180000000     sf_runtime:sf_runtime.dll
 0000:00000000       .debug$S                   0000000180000000     libmx:libmx.dll
 0000:00000000       .debug$S                   0000000180000000     sf_runtime:sf_runtime.dll
 0000:00000000       .debug$S                   0000000180000000     sf_runtime:sf_runtime.dll
 0000:00000000       .debug$S                   0000000180000000     sf_runtime:sf_runtime.dll
 0000:00000000       .debug$S                   0000000180000000     sf_runtime:sf_runtime.dll
 0000:00000000       .debug$S                   0000000180000000     sf_runtime:sf_runtime.dll
 0000:00000000       .debug$S                   0000000180000000     sf_runtime:sf_runtime.dll
 0000:00000000       .debug$S                   0000000180000000     sf_runtime:sf_runtime.dll
 0000:00000000       .debug$S                   0000000180000000     sf_runtime:sf_runtime.dll
 0001:00001a70       chart_debug_initialization 0000000180002a70 f   c9_MASs.obj
 0001:00002950       chart_debug_initialize_data_addresses 0000000180003950 f   c9_MASs.obj
 0001:00002cf0       initialize_c9_MASs         0000000180003cf0 f   c9_MASs.obj
 0001:00002d60       initialize_params_c9_MASs  0000000180003d60 f   c9_MASs.obj
 0001:00002d70       enable_c9_MASs             0000000180003d70 f   c9_MASs.obj
 0001:00002da0       disable_c9_MASs            0000000180003da0 f   c9_MASs.obj
 0001:00002dd0       c9_update_debugger_state_c9_MASs 0000000180003dd0 f   c9_MASs.obj
 0001:00002de0       get_sim_state_c9_MASs      0000000180003de0 f   c9_MASs.obj
 0001:000030a0       set_sim_state_c9_MASs      00000001800040a0 f   c9_MASs.obj
 0001:00003200       finalize_c9_MASs           0000000180004200 f   c9_MASs.obj
 0001:00003210       sf_gateway_c9_MASs         0000000180004210 f   c9_MASs.obj
 0001:00003900       mdl_start_c9_MASs          0000000180004900 f   c9_MASs.obj
 0001:00003910       c9_chartstep_c9_MASs       0000000180004910 f   c9_MASs.obj
 0001:000055a0       initSimStructsc9_MASs      00000001800065a0 f   c9_MASs.obj
 0001:000055b0       init_script_number_translation 00000001800065b0 f   c9_MASs.obj
 0001:000055d0       c9_sf_marshallOut          00000001800065d0 f   c9_MASs.obj
 0001:00005680       c9_emlrt_marshallIn        0000000180006680 f   c9_MASs.obj
 0001:000056f0       c9_b_emlrt_marshallIn      00000001800066f0 f   c9_MASs.obj
 0001:00005780       c9_sf_marshallIn           0000000180006780 f   c9_MASs.obj
 0001:00005830       c9_mpower                  0000000180006830 f   c9_MASs.obj
 0001:000058c0       c9_fltpower_domain_error   00000001800068c0 f   c9_MASs.obj
 0001:000059d0       c9_error                   00000001800069d0 f   c9_MASs.obj
 0001:00005ab0       c9_b_mpower                0000000180006ab0 f   c9_MASs.obj
 0001:00005ba0       c9_b_error                 0000000180006ba0 f   c9_MASs.obj
 0001:00005cf0       c9_c_mpower                0000000180006cf0 f   c9_MASs.obj
 0001:00005de0       c9_d_mpower                0000000180006de0 f   c9_MASs.obj
 0001:00005e80       c9_c_error                 0000000180006e80 f   c9_MASs.obj
 0001:00005fd0       c9_e_mpower                0000000180006fd0 f   c9_MASs.obj
 0001:00006070       c9_d_emlrt_marshallIn      0000000180007070 f   c9_MASs.obj
 0001:000060e0       c9_e_emlrt_marshallIn      00000001800070e0 f   c9_MASs.obj
 0001:00006170       c9_b_log10                 0000000180007170 f   c9_MASs.obj
 0001:00006200       init_dsm_address_info      0000000180007200 f   c9_MASs.obj
 0001:00006210       init_simulink_io_address   0000000180007210 f   c9_MASs.obj
 0001:000075d0       sf_get_sim_state_info_c9_MASs 00000001800085d0 f   c9_MASs.obj
 0001:000076a0       sf_get_instance_specialization 00000001800086a0 f   c9_MASs.obj
 0001:000076b0       sf_opaque_initialize_c9_MASs 00000001800086b0 f   c9_MASs.obj
 0001:000076f0       sf_opaque_enable_c9_MASs   00000001800086f0 f   c9_MASs.obj
 0001:00007710       sf_opaque_disable_c9_MASs  0000000180008710 f   c9_MASs.obj
 0001:00007730       sf_opaque_gateway_c9_MASs  0000000180008730 f   c9_MASs.obj
 0001:00007750       sf_opaque_get_sim_state_c9_MASs 0000000180008750 f   c9_MASs.obj
 0001:00007780       sf_opaque_set_sim_state_c9_MASs 0000000180008780 f   c9_MASs.obj
 0001:000077b0       sf_opaque_terminate_c9_MASs 00000001800087b0 f   c9_MASs.obj
 0001:00007850       mdlProcessParameters_c9_MASs 0000000180008850 f   c9_MASs.obj
 0001:00007910       mdlSetWorkWidths_c9_MASs   0000000180008910 f   c9_MASs.obj
 0001:00008080       mdlRTW_c9_MASs             0000000180009080 f   c9_MASs.obj
 0001:000080c0       mdlStart_c9_MASs           00000001800090c0 f   c9_MASs.obj
 0001:000084d0       chart_debug_initialization 00000001800094d0 f   c16_MASs.obj
 0001:000093b0       chart_debug_initialize_data_addresses 000000018000a3b0 f   c16_MASs.obj
 0001:00009750       initialize_c16_MASs        000000018000a750 f   c16_MASs.obj
 0001:000097c0       initialize_params_c16_MASs 000000018000a7c0 f   c16_MASs.obj
 0001:000097d0       enable_c16_MASs            000000018000a7d0 f   c16_MASs.obj
 0001:00009800       disable_c16_MASs           000000018000a800 f   c16_MASs.obj
 0001:00009830       c16_update_debugger_state_c16_MASs 000000018000a830 f   c16_MASs.obj
 0001:00009840       get_sim_state_c16_MASs     000000018000a840 f   c16_MASs.obj
 0001:00009b00       set_sim_state_c16_MASs     000000018000ab00 f   c16_MASs.obj
 0001:00009c60       finalize_c16_MASs          000000018000ac60 f   c16_MASs.obj
 0001:00009c70       sf_gateway_c16_MASs        000000018000ac70 f   c16_MASs.obj
 0001:0000a360       mdl_start_c16_MASs         000000018000b360 f   c16_MASs.obj
 0001:0000a370       c16_chartstep_c16_MASs     000000018000b370 f   c16_MASs.obj
 0001:0000c000       initSimStructsc16_MASs     000000018000d000 f   c16_MASs.obj
 0001:0000c010       init_script_number_translation 000000018000d010 f   c16_MASs.obj
 0001:0000c030       c16_sf_marshallOut         000000018000d030 f   c16_MASs.obj
 0001:0000c0e0       c16_emlrt_marshallIn       000000018000d0e0 f   c16_MASs.obj
 0001:0000c150       c16_b_emlrt_marshallIn     000000018000d150 f   c16_MASs.obj
 0001:0000c1e0       c16_sf_marshallIn          000000018000d1e0 f   c16_MASs.obj
 0001:0000c290       c16_mpower                 000000018000d290 f   c16_MASs.obj
 0001:0000c320       c16_fltpower_domain_error  000000018000d320 f   c16_MASs.obj
 0001:0000c430       c16_error                  000000018000d430 f   c16_MASs.obj
 0001:0000c510       c16_b_mpower               000000018000d510 f   c16_MASs.obj
 0001:0000c600       c16_b_error                000000018000d600 f   c16_MASs.obj
 0001:0000c750       c16_c_mpower               000000018000d750 f   c16_MASs.obj
 0001:0000c840       c16_d_mpower               000000018000d840 f   c16_MASs.obj
 0001:0000c8e0       c16_c_error                000000018000d8e0 f   c16_MASs.obj
 0001:0000ca30       c16_e_mpower               000000018000da30 f   c16_MASs.obj
 0001:0000cad0       c16_d_emlrt_marshallIn     000000018000dad0 f   c16_MASs.obj
 0001:0000cb40       c16_e_emlrt_marshallIn     000000018000db40 f   c16_MASs.obj
 0001:0000cbd0       c16_b_log10                000000018000dbd0 f   c16_MASs.obj
 0001:0000cc60       init_dsm_address_info      000000018000dc60 f   c16_MASs.obj
 0001:0000cc70       init_simulink_io_address   000000018000dc70 f   c16_MASs.obj
 0001:0000e030       sf_get_sim_state_info_c16_MASs 000000018000f030 f   c16_MASs.obj
 0001:0000e100       sf_get_instance_specialization 000000018000f100 f   c16_MASs.obj
 0001:0000e110       sf_opaque_initialize_c16_MASs 000000018000f110 f   c16_MASs.obj
 0001:0000e150       sf_opaque_enable_c16_MASs  000000018000f150 f   c16_MASs.obj
 0001:0000e170       sf_opaque_disable_c16_MASs 000000018000f170 f   c16_MASs.obj
 0001:0000e190       sf_opaque_gateway_c16_MASs 000000018000f190 f   c16_MASs.obj
 0001:0000e1b0       sf_opaque_get_sim_state_c16_MASs 000000018000f1b0 f   c16_MASs.obj
 0001:0000e1e0       sf_opaque_set_sim_state_c16_MASs 000000018000f1e0 f   c16_MASs.obj
 0001:0000e210       sf_opaque_terminate_c16_MASs 000000018000f210 f   c16_MASs.obj
 0001:0000e2b0       mdlProcessParameters_c16_MASs 000000018000f2b0 f   c16_MASs.obj
 0001:0000e370       mdlSetWorkWidths_c16_MASs  000000018000f370 f   c16_MASs.obj
 0001:0000eae0       mdlRTW_c16_MASs            000000018000fae0 f   c16_MASs.obj
 0001:0000eb20       mdlStart_c16_MASs          000000018000fb20 f   c16_MASs.obj
 0001:0000ef30       chart_debug_initialization 000000018000ff30 f   c23_MASs.obj
 0001:0000fe10       chart_debug_initialize_data_addresses 0000000180010e10 f   c23_MASs.obj
 0001:000101b0       initialize_c23_MASs        00000001800111b0 f   c23_MASs.obj
 0001:00010220       initialize_params_c23_MASs 0000000180011220 f   c23_MASs.obj
 0001:00010230       enable_c23_MASs            0000000180011230 f   c23_MASs.obj
 0001:00010260       disable_c23_MASs           0000000180011260 f   c23_MASs.obj
 0001:00010290       c23_update_debugger_state_c23_MASs 0000000180011290 f   c23_MASs.obj
 0001:000102a0       get_sim_state_c23_MASs     00000001800112a0 f   c23_MASs.obj
 0001:00010560       set_sim_state_c23_MASs     0000000180011560 f   c23_MASs.obj
 0001:000106c0       finalize_c23_MASs          00000001800116c0 f   c23_MASs.obj
 0001:000106d0       sf_gateway_c23_MASs        00000001800116d0 f   c23_MASs.obj
 0001:00010dc0       mdl_start_c23_MASs         0000000180011dc0 f   c23_MASs.obj
 0001:00010dd0       c23_chartstep_c23_MASs     0000000180011dd0 f   c23_MASs.obj
 0001:00012a60       initSimStructsc23_MASs     0000000180013a60 f   c23_MASs.obj
 0001:00012a70       init_script_number_translation 0000000180013a70 f   c23_MASs.obj
 0001:00012a90       c23_sf_marshallOut         0000000180013a90 f   c23_MASs.obj
 0001:00012b40       c23_emlrt_marshallIn       0000000180013b40 f   c23_MASs.obj
 0001:00012bb0       c23_b_emlrt_marshallIn     0000000180013bb0 f   c23_MASs.obj
 0001:00012c40       c23_sf_marshallIn          0000000180013c40 f   c23_MASs.obj
 0001:00012cf0       c23_mpower                 0000000180013cf0 f   c23_MASs.obj
 0001:00012d80       c23_fltpower_domain_error  0000000180013d80 f   c23_MASs.obj
 0001:00012e90       c23_error                  0000000180013e90 f   c23_MASs.obj
 0001:00012f70       c23_b_mpower               0000000180013f70 f   c23_MASs.obj
 0001:00013060       c23_b_error                0000000180014060 f   c23_MASs.obj
 0001:000131b0       c23_c_mpower               00000001800141b0 f   c23_MASs.obj
 0001:000132a0       c23_d_mpower               00000001800142a0 f   c23_MASs.obj
 0001:00013340       c23_c_error                0000000180014340 f   c23_MASs.obj
 0001:00013490       c23_e_mpower               0000000180014490 f   c23_MASs.obj
 0001:00013530       c23_d_emlrt_marshallIn     0000000180014530 f   c23_MASs.obj
 0001:000135a0       c23_e_emlrt_marshallIn     00000001800145a0 f   c23_MASs.obj
 0001:00013630       c23_b_log10                0000000180014630 f   c23_MASs.obj
 0001:000136c0       init_dsm_address_info      00000001800146c0 f   c23_MASs.obj
 0001:000136d0       init_simulink_io_address   00000001800146d0 f   c23_MASs.obj
 0001:00014a90       sf_get_sim_state_info_c23_MASs 0000000180015a90 f   c23_MASs.obj
 0001:00014b60       sf_get_instance_specialization 0000000180015b60 f   c23_MASs.obj
 0001:00014b70       sf_opaque_initialize_c23_MASs 0000000180015b70 f   c23_MASs.obj
 0001:00014bb0       sf_opaque_enable_c23_MASs  0000000180015bb0 f   c23_MASs.obj
 0001:00014bd0       sf_opaque_disable_c23_MASs 0000000180015bd0 f   c23_MASs.obj
 0001:00014bf0       sf_opaque_gateway_c23_MASs 0000000180015bf0 f   c23_MASs.obj
 0001:00014c10       sf_opaque_get_sim_state_c23_MASs 0000000180015c10 f   c23_MASs.obj
 0001:00014c40       sf_opaque_set_sim_state_c23_MASs 0000000180015c40 f   c23_MASs.obj
 0001:00014c70       sf_opaque_terminate_c23_MASs 0000000180015c70 f   c23_MASs.obj
 0001:00014d10       mdlProcessParameters_c23_MASs 0000000180015d10 f   c23_MASs.obj
 0001:00014dd0       mdlSetWorkWidths_c23_MASs  0000000180015dd0 f   c23_MASs.obj
 0001:00015540       mdlRTW_c23_MASs            0000000180016540 f   c23_MASs.obj
 0001:00015580       mdlStart_c23_MASs          0000000180016580 f   c23_MASs.obj
 0001:00015990       chart_debug_initialization 0000000180016990 f   c30_MASs.obj
 0001:00016870       chart_debug_initialize_data_addresses 0000000180017870 f   c30_MASs.obj
 0001:00016c10       initialize_c30_MASs        0000000180017c10 f   c30_MASs.obj
 0001:00016c80       initialize_params_c30_MASs 0000000180017c80 f   c30_MASs.obj
 0001:00016c90       enable_c30_MASs            0000000180017c90 f   c30_MASs.obj
 0001:00016cc0       disable_c30_MASs           0000000180017cc0 f   c30_MASs.obj
 0001:00016cf0       c30_update_debugger_state_c30_MASs 0000000180017cf0 f   c30_MASs.obj
 0001:00016d00       get_sim_state_c30_MASs     0000000180017d00 f   c30_MASs.obj
 0001:00016fc0       set_sim_state_c30_MASs     0000000180017fc0 f   c30_MASs.obj
 0001:00017120       finalize_c30_MASs          0000000180018120 f   c30_MASs.obj
 0001:00017130       sf_gateway_c30_MASs        0000000180018130 f   c30_MASs.obj
 0001:00017820       mdl_start_c30_MASs         0000000180018820 f   c30_MASs.obj
 0001:00017830       c30_chartstep_c30_MASs     0000000180018830 f   c30_MASs.obj
 0001:000194c0       initSimStructsc30_MASs     000000018001a4c0 f   c30_MASs.obj
 0001:000194d0       init_script_number_translation 000000018001a4d0 f   c30_MASs.obj
 0001:000194f0       c30_sf_marshallOut         000000018001a4f0 f   c30_MASs.obj
 0001:000195a0       c30_emlrt_marshallIn       000000018001a5a0 f   c30_MASs.obj
 0001:00019610       c30_b_emlrt_marshallIn     000000018001a610 f   c30_MASs.obj
 0001:000196a0       c30_sf_marshallIn          000000018001a6a0 f   c30_MASs.obj
 0001:00019750       c30_mpower                 000000018001a750 f   c30_MASs.obj
 0001:000197e0       c30_fltpower_domain_error  000000018001a7e0 f   c30_MASs.obj
 0001:000198f0       c30_error                  000000018001a8f0 f   c30_MASs.obj
 0001:000199d0       c30_b_mpower               000000018001a9d0 f   c30_MASs.obj
 0001:00019ac0       c30_b_error                000000018001aac0 f   c30_MASs.obj
 0001:00019c10       c30_c_mpower               000000018001ac10 f   c30_MASs.obj
 0001:00019d00       c30_d_mpower               000000018001ad00 f   c30_MASs.obj
 0001:00019da0       c30_c_error                000000018001ada0 f   c30_MASs.obj
 0001:00019ef0       c30_e_mpower               000000018001aef0 f   c30_MASs.obj
 0001:00019f90       c30_d_emlrt_marshallIn     000000018001af90 f   c30_MASs.obj
 0001:0001a000       c30_e_emlrt_marshallIn     000000018001b000 f   c30_MASs.obj
 0001:0001a090       c30_b_log10                000000018001b090 f   c30_MASs.obj
 0001:0001a120       init_dsm_address_info      000000018001b120 f   c30_MASs.obj
 0001:0001a130       init_simulink_io_address   000000018001b130 f   c30_MASs.obj
 0001:0001b4f0       sf_get_sim_state_info_c30_MASs 000000018001c4f0 f   c30_MASs.obj
 0001:0001b5c0       sf_get_instance_specialization 000000018001c5c0 f   c30_MASs.obj
 0001:0001b5d0       sf_opaque_initialize_c30_MASs 000000018001c5d0 f   c30_MASs.obj
 0001:0001b610       sf_opaque_enable_c30_MASs  000000018001c610 f   c30_MASs.obj
 0001:0001b630       sf_opaque_disable_c30_MASs 000000018001c630 f   c30_MASs.obj
 0001:0001b650       sf_opaque_gateway_c30_MASs 000000018001c650 f   c30_MASs.obj
 0001:0001b670       sf_opaque_get_sim_state_c30_MASs 000000018001c670 f   c30_MASs.obj
 0001:0001b6a0       sf_opaque_set_sim_state_c30_MASs 000000018001c6a0 f   c30_MASs.obj
 0001:0001b6d0       sf_opaque_terminate_c30_MASs 000000018001c6d0 f   c30_MASs.obj
 0001:0001b770       mdlProcessParameters_c30_MASs 000000018001c770 f   c30_MASs.obj
 0001:0001b830       mdlSetWorkWidths_c30_MASs  000000018001c830 f   c30_MASs.obj
 0001:0001bfa0       mdlRTW_c30_MASs            000000018001cfa0 f   c30_MASs.obj
 0001:0001bfe0       mdlStart_c30_MASs          000000018001cfe0 f   c30_MASs.obj
 0001:0001c3f0       chart_debug_initialization 000000018001d3f0 f   c37_MASs.obj
 0001:0001d2d0       chart_debug_initialize_data_addresses 000000018001e2d0 f   c37_MASs.obj
 0001:0001d670       initialize_c37_MASs        000000018001e670 f   c37_MASs.obj
 0001:0001d6e0       initialize_params_c37_MASs 000000018001e6e0 f   c37_MASs.obj
 0001:0001d6f0       enable_c37_MASs            000000018001e6f0 f   c37_MASs.obj
 0001:0001d720       disable_c37_MASs           000000018001e720 f   c37_MASs.obj
 0001:0001d750       c37_update_debugger_state_c37_MASs 000000018001e750 f   c37_MASs.obj
 0001:0001d760       get_sim_state_c37_MASs     000000018001e760 f   c37_MASs.obj
 0001:0001da20       set_sim_state_c37_MASs     000000018001ea20 f   c37_MASs.obj
 0001:0001db80       finalize_c37_MASs          000000018001eb80 f   c37_MASs.obj
 0001:0001db90       sf_gateway_c37_MASs        000000018001eb90 f   c37_MASs.obj
 0001:0001e280       mdl_start_c37_MASs         000000018001f280 f   c37_MASs.obj
 0001:0001e290       c37_chartstep_c37_MASs     000000018001f290 f   c37_MASs.obj
 0001:0001ff20       initSimStructsc37_MASs     0000000180020f20 f   c37_MASs.obj
 0001:0001ff30       init_script_number_translation 0000000180020f30 f   c37_MASs.obj
 0001:0001ff50       c37_sf_marshallOut         0000000180020f50 f   c37_MASs.obj
 0001:00020000       c37_emlrt_marshallIn       0000000180021000 f   c37_MASs.obj
 0001:00020070       c37_b_emlrt_marshallIn     0000000180021070 f   c37_MASs.obj
 0001:00020100       c37_sf_marshallIn          0000000180021100 f   c37_MASs.obj
 0001:000201b0       c37_mpower                 00000001800211b0 f   c37_MASs.obj
 0001:00020240       c37_fltpower_domain_error  0000000180021240 f   c37_MASs.obj
 0001:00020350       c37_error                  0000000180021350 f   c37_MASs.obj
 0001:00020430       c37_b_mpower               0000000180021430 f   c37_MASs.obj
 0001:00020520       c37_b_error                0000000180021520 f   c37_MASs.obj
 0001:00020670       c37_c_mpower               0000000180021670 f   c37_MASs.obj
 0001:00020760       c37_d_mpower               0000000180021760 f   c37_MASs.obj
 0001:00020800       c37_c_error                0000000180021800 f   c37_MASs.obj
 0001:00020950       c37_e_mpower               0000000180021950 f   c37_MASs.obj
 0001:000209f0       c37_d_emlrt_marshallIn     00000001800219f0 f   c37_MASs.obj
 0001:00020a60       c37_e_emlrt_marshallIn     0000000180021a60 f   c37_MASs.obj
 0001:00020af0       c37_b_log10                0000000180021af0 f   c37_MASs.obj
 0001:00020b80       init_dsm_address_info      0000000180021b80 f   c37_MASs.obj
 0001:00020b90       init_simulink_io_address   0000000180021b90 f   c37_MASs.obj
 0001:00021f50       sf_get_sim_state_info_c37_MASs 0000000180022f50 f   c37_MASs.obj
 0001:00022020       sf_get_instance_specialization 0000000180023020 f   c37_MASs.obj
 0001:00022030       sf_opaque_initialize_c37_MASs 0000000180023030 f   c37_MASs.obj
 0001:00022070       sf_opaque_enable_c37_MASs  0000000180023070 f   c37_MASs.obj
 0001:00022090       sf_opaque_disable_c37_MASs 0000000180023090 f   c37_MASs.obj
 0001:000220b0       sf_opaque_gateway_c37_MASs 00000001800230b0 f   c37_MASs.obj
 0001:000220d0       sf_opaque_get_sim_state_c37_MASs 00000001800230d0 f   c37_MASs.obj
 0001:00022100       sf_opaque_set_sim_state_c37_MASs 0000000180023100 f   c37_MASs.obj
 0001:00022130       sf_opaque_terminate_c37_MASs 0000000180023130 f   c37_MASs.obj
 0001:000221d0       mdlProcessParameters_c37_MASs 00000001800231d0 f   c37_MASs.obj
 0001:00022290       mdlSetWorkWidths_c37_MASs  0000000180023290 f   c37_MASs.obj
 0001:00022a00       mdlRTW_c37_MASs            0000000180023a00 f   c37_MASs.obj
 0001:00022a40       mdlStart_c37_MASs          0000000180023a40 f   c37_MASs.obj
 0001:00023f88       $LN120                     0000000180024f88     MASs_sfun_registry.obj
 0001:00025b54       $LN17                      0000000180026b54     MASs_sfun_registry.obj
 0001:000260dc       $LN26                      00000001800270dc     MASs_sfun_registry.obj
 0001:000267c4       $LN23                      00000001800277c4     MASs_sfun_registry.obj
 0001:00026da0       $LN26                      0000000180027da0     MASs_sfun_registry.obj
 0001:00028cd0       sf_debug_api_wrapper       0000000180029cd0 f   MASs_sfun_registry.obj
 0001:00028d20       ProcessMexSfunctionCmdLineCall 0000000180029d20 f   MASs_sfun_registry.obj
 0001:000290d0       mdlSetWorkWidths           000000018002a0d0 f   MASs_sfun_registry.obj
 0001:00029100       mdlProcessParameters       000000018002a100 f   MASs_sfun_registry.obj
 0001:00029130       mdl_start_processing       000000018002a130 f   MASs_sfun_registry.obj
 0001:000291e0       mdl_terminate_processing   000000018002a1e0 f   MASs_sfun_registry.obj
 0001:00029260       mdlStart                   000000018002a260 f   MASs_sfun_registry.obj
 0001:00029290       mdlTerminate               000000018002a290 f   MASs_sfun_registry.obj
 0001:000292c0       mdlInitializeSizes         000000018002a2c0 f   MASs_sfun_registry.obj
 0001:000292f0       mdlInitializeSampleTimes   000000018002a2f0 f   MASs_sfun_registry.obj
 0001:00029320       mdl_outputs_continuous_legacy 000000018002a320 f   MASs_sfun_registry.obj
 0001:00029420       mdl_outputs_processing     000000018002a420 f   MASs_sfun_registry.obj
 0001:00029540       mdl_zeroCrossings_processing 000000018002a540 f   MASs_sfun_registry.obj
 0001:00029580       mdlZeroCrossings           000000018002a580 f   MASs_sfun_registry.obj
 0001:000295b0       mdl_derivatives_processing 000000018002a5b0 f   MASs_sfun_registry.obj
 0001:00029600       mdlDerivatives             000000018002a600 f   MASs_sfun_registry.obj
 0001:00029630       mdl_initialize_conditions_processing 000000018002a630 f   MASs_sfun_registry.obj
 0001:00029680       mdlInitializeConditions    000000018002a680 f   MASs_sfun_registry.obj
 0001:000296b0       mdl_ext_mode_exec_processing 000000018002a6b0 f   MASs_sfun_registry.obj
 0001:000296f0       mdlExtModeExec             000000018002a6f0 f   MASs_sfun_registry.obj
 0001:00029720       mdlRTW                     000000018002a720 f   MASs_sfun_registry.obj
 0001:00029760       mdl_enable_processing      000000018002a760 f   MASs_sfun_registry.obj
 0001:000297a0       mdlEnable                  000000018002a7a0 f   MASs_sfun_registry.obj
 0001:000297d0       mdl_disable_processing     000000018002a7d0 f   MASs_sfun_registry.obj
 0001:00029810       mdlDisable                 000000018002a810 f   MASs_sfun_registry.obj
 0001:00029840       mdlOutputs                 000000018002a840 f   MASs_sfun_registry.obj
 0001:00029870       mdl_update_processing      000000018002a870 f   MASs_sfun_registry.obj
 0001:000298c0       mdlUpdate                  000000018002a8c0 f   MASs_sfun_registry.obj
 0001:00029aa0       mdlGetTimeOfNextVarHit     000000018002aaa0 f   MASs_sfun_registry.obj
 0001:00029af0       _RegNumInputPortsCB        000000018002aaf0 f   MASs_sfun_registry.obj
 0001:00029b70       _RegNumOutputPortsCB       000000018002ab70 f   MASs_sfun_registry.obj
 0001:00029bf0       _CreateSimStruct           000000018002abf0 f   MASs_sfun_registry.obj
 0001:00029dd0       _ssFatalError              000000018002add0 f   MASs_sfun_registry.obj
 0001:00029ea0       _ProcessMexSfunctionCmdLineCall 000000018002aea0 f   MASs_sfun_registry.obj
 0001:0002abd0       $$000000                   000000018002bbd0     MSVCRT:amdsecgs.obj
 0001:0002ac2c       pre_c_init                 000000018002bc2c f   MSVCRT:crtdll.obj
 0001:0002af24       __DllMainCRTStartup        000000018002bf24 f   MSVCRT:crtdll.obj
 0001:0002b440       __DllMainCRTStartup$filt$0 000000018002c440 f   MSVCRT:crtdll.obj
 0001:0002b465       __DllMainCRTStartup$fin$1  000000018002c465 f   MSVCRT:crtdll.obj
 0001:0002b480       _IsNonwritableInCurrentImage$filt$0 000000018002c480 f   MSVCRT:pesect.obj
 0001:0002b4a0       _onexit$fin$0              000000018002c4a0 f   MSVCRT:atonexit.obj
 0002:00000490       pcinit                     000000018002d490     MSVCRT:crtdll.obj
 0002:00000498       pinit                      000000018002d498     MSVCRT:atonexit.obj
 0002:00000bd0       GS_ExceptionPointers       000000018002dbd0     MSVCRT:gs_report.obj
 0002:00000c90       $unwind$load_MASs_optimization_info 000000018002dc90     MASs_sfun.obj
 0002:00000c98       $unwind$unload_MASs_optimization_info 000000018002dc98     MASs_sfun.obj
 0002:00000ca0       $unwind$sf_MASs_method_dispatcher 000000018002dca0     MASs_sfun.obj
 0002:00000ca8       $unwind$sf_MASs_uses_exported_functions 000000018002dca8     MASs_sfun.obj
 0002:00000cb0       $unwind$sf_MASs_process_check_sum_call 000000018002dcb0     MASs_sfun.obj
 0002:00000cc0       $unwind$sf_MASs_autoinheritance_info 000000018002dcc0     MASs_sfun.obj
 0002:00000cd0       $unwind$sf_MASs_get_eml_resolved_functions_info 000000018002dcd0     MASs_sfun.obj
 0002:00000ce0       $unwind$sf_MASs_third_party_uses_info 000000018002dce0     MASs_sfun.obj
 0002:00000cf0       $unwind$sf_MASs_jit_fallback_info 000000018002dcf0     MASs_sfun.obj
 0002:00000d00       $unwind$sf_MASs_updateBuildInfo_args_info 000000018002dd00     MASs_sfun.obj
 0002:00000d10       $unwind$sf_MASs_get_post_codegen_info 000000018002dd10     MASs_sfun.obj
 0002:00000d20       $unwind$MASs_debug_initialize 000000018002dd20     MASs_sfun.obj
 0002:00000d28       $unwind$sf_c9_MASs_get_eml_resolved_functions_info 000000018002dd28     c9_MASs.obj
 0002:00000d30       $unwind$sf_c9_MASs_get_check_sum 000000018002dd30     c9_MASs.obj
 0002:00000d38       $unwind$c9_MASs_method_dispatcher 000000018002dd38     c9_MASs.obj
 0002:00000d40       $unwind$chart_debug_initialization 000000018002dd40     c9_MASs.obj
 0002:00000d48       $unwind$chart_debug_initialize_data_addresses 000000018002dd48     c9_MASs.obj
 0002:00000d50       $unwind$initialize_c9_MASs 000000018002dd50     c9_MASs.obj
 0002:00000d58       $unwind$enable_c9_MASs     000000018002dd58     c9_MASs.obj
 0002:00000d60       $unwind$disable_c9_MASs    000000018002dd60     c9_MASs.obj
 0002:00000d68       $unwind$get_sim_state_c9_MASs 000000018002dd68     c9_MASs.obj
 0002:00000d70       $unwind$set_sim_state_c9_MASs 000000018002dd70     c9_MASs.obj
 0002:00000d78       $unwind$sf_gateway_c9_MASs 000000018002dd78     c9_MASs.obj
 0002:00000d80       $unwind$c9_chartstep_c9_MASs 000000018002dd80     c9_MASs.obj
 0002:00000d90       $unwind$c9_sf_marshallOut  000000018002dd90     c9_MASs.obj
 0002:00000d98       $unwind$c9_emlrt_marshallIn 000000018002dd98     c9_MASs.obj
 0002:00000da0       $unwind$c9_b_emlrt_marshallIn 000000018002dda0     c9_MASs.obj
 0002:00000da8       $unwind$c9_sf_marshallIn   000000018002dda8     c9_MASs.obj
 0002:00000db0       $unwind$c9_mpower          000000018002ddb0     c9_MASs.obj
 0002:00000db8       $unwind$c9_fltpower_domain_error 000000018002ddb8     c9_MASs.obj
 0002:00000dc0       $unwind$c9_error           000000018002ddc0     c9_MASs.obj
 0002:00000dc8       $unwind$c9_b_mpower        000000018002ddc8     c9_MASs.obj
 0002:00000dd0       $unwind$c9_b_error         000000018002ddd0     c9_MASs.obj
 0002:00000dd8       $unwind$c9_c_mpower        000000018002ddd8     c9_MASs.obj
 0002:00000de0       $unwind$c9_d_mpower        000000018002dde0     c9_MASs.obj
 0002:00000de8       $unwind$c9_c_error         000000018002dde8     c9_MASs.obj
 0002:00000df0       $unwind$c9_e_mpower        000000018002ddf0     c9_MASs.obj
 0002:00000df8       $unwind$c9_d_emlrt_marshallIn 000000018002ddf8     c9_MASs.obj
 0002:00000e00       $unwind$c9_e_emlrt_marshallIn 000000018002de00     c9_MASs.obj
 0002:00000e08       $unwind$c9_b_log10         000000018002de08     c9_MASs.obj
 0002:00000e10       $unwind$init_simulink_io_address 000000018002de10     c9_MASs.obj
 0002:00000e18       $unwind$sf_c9_MASs_get_post_codegen_info 000000018002de18     c9_MASs.obj
 0002:00000e20       $unwind$sf_c9_MASs_get_autoinheritance_info 000000018002de20     c9_MASs.obj
 0002:00000e30       $unwind$sf_c9_MASs_third_party_uses_info 000000018002de30     c9_MASs.obj
 0002:00000e38       $unwind$sf_c9_MASs_jit_fallback_info 000000018002de38     c9_MASs.obj
 0002:00000e48       $unwind$sf_c9_MASs_updateBuildInfo_args_info 000000018002de48     c9_MASs.obj
 0002:00000e50       $unwind$sf_get_sim_state_info_c9_MASs 000000018002de50     c9_MASs.obj
 0002:00000e58       $unwind$sf_opaque_initialize_c9_MASs 000000018002de58     c9_MASs.obj
 0002:00000e60       $unwind$sf_opaque_enable_c9_MASs 000000018002de60     c9_MASs.obj
 0002:00000e68       $unwind$sf_opaque_disable_c9_MASs 000000018002de68     c9_MASs.obj
 0002:00000e70       $unwind$sf_opaque_gateway_c9_MASs 000000018002de70     c9_MASs.obj
 0002:00000e78       $unwind$sf_opaque_get_sim_state_c9_MASs 000000018002de78     c9_MASs.obj
 0002:00000e80       $unwind$sf_opaque_set_sim_state_c9_MASs 000000018002de80     c9_MASs.obj
 0002:00000e88       $unwind$sf_opaque_terminate_c9_MASs 000000018002de88     c9_MASs.obj
 0002:00000e90       $unwind$mdlProcessParameters_c9_MASs 000000018002de90     c9_MASs.obj
 0002:00000e98       $unwind$mdlSetWorkWidths_c9_MASs 000000018002de98     c9_MASs.obj
 0002:00000ea0       $unwind$mdlRTW_c9_MASs     000000018002dea0     c9_MASs.obj
 0002:00000ea8       $unwind$mdlStart_c9_MASs   000000018002dea8     c9_MASs.obj
 0002:00000eb0       $unwind$sf_c16_MASs_get_eml_resolved_functions_info 000000018002deb0     c16_MASs.obj
 0002:00000eb8       $unwind$sf_c16_MASs_get_check_sum 000000018002deb8     c16_MASs.obj
 0002:00000ec0       $unwind$c16_MASs_method_dispatcher 000000018002dec0     c16_MASs.obj
 0002:00000ec8       $unwind$chart_debug_initialization 000000018002dec8     c16_MASs.obj
 0002:00000ed0       $unwind$chart_debug_initialize_data_addresses 000000018002ded0     c16_MASs.obj
 0002:00000ed8       $unwind$initialize_c16_MASs 000000018002ded8     c16_MASs.obj
 0002:00000ee0       $unwind$enable_c16_MASs    000000018002dee0     c16_MASs.obj
 0002:00000ee8       $unwind$disable_c16_MASs   000000018002dee8     c16_MASs.obj
 0002:00000ef0       $unwind$get_sim_state_c16_MASs 000000018002def0     c16_MASs.obj
 0002:00000ef8       $unwind$set_sim_state_c16_MASs 000000018002def8     c16_MASs.obj
 0002:00000f00       $unwind$sf_gateway_c16_MASs 000000018002df00     c16_MASs.obj
 0002:00000f08       $unwind$c16_chartstep_c16_MASs 000000018002df08     c16_MASs.obj
 0002:00000f18       $unwind$c16_sf_marshallOut 000000018002df18     c16_MASs.obj
 0002:00000f20       $unwind$c16_emlrt_marshallIn 000000018002df20     c16_MASs.obj
 0002:00000f28       $unwind$c16_b_emlrt_marshallIn 000000018002df28     c16_MASs.obj
 0002:00000f30       $unwind$c16_sf_marshallIn  000000018002df30     c16_MASs.obj
 0002:00000f38       $unwind$c16_mpower         000000018002df38     c16_MASs.obj
 0002:00000f40       $unwind$c16_fltpower_domain_error 000000018002df40     c16_MASs.obj
 0002:00000f48       $unwind$c16_error          000000018002df48     c16_MASs.obj
 0002:00000f50       $unwind$c16_b_mpower       000000018002df50     c16_MASs.obj
 0002:00000f58       $unwind$c16_b_error        000000018002df58     c16_MASs.obj
 0002:00000f60       $unwind$c16_c_mpower       000000018002df60     c16_MASs.obj
 0002:00000f68       $unwind$c16_d_mpower       000000018002df68     c16_MASs.obj
 0002:00000f70       $unwind$c16_c_error        000000018002df70     c16_MASs.obj
 0002:00000f78       $unwind$c16_e_mpower       000000018002df78     c16_MASs.obj
 0002:00000f80       $unwind$c16_d_emlrt_marshallIn 000000018002df80     c16_MASs.obj
 0002:00000f88       $unwind$c16_e_emlrt_marshallIn 000000018002df88     c16_MASs.obj
 0002:00000f90       $unwind$c16_b_log10        000000018002df90     c16_MASs.obj
 0002:00000f98       $unwind$init_simulink_io_address 000000018002df98     c16_MASs.obj
 0002:00000fa0       $unwind$sf_c16_MASs_get_post_codegen_info 000000018002dfa0     c16_MASs.obj
 0002:00000fa8       $unwind$sf_c16_MASs_get_autoinheritance_info 000000018002dfa8     c16_MASs.obj
 0002:00000fb8       $unwind$sf_c16_MASs_third_party_uses_info 000000018002dfb8     c16_MASs.obj
 0002:00000fc0       $unwind$sf_c16_MASs_jit_fallback_info 000000018002dfc0     c16_MASs.obj
 0002:00000fd0       $unwind$sf_c16_MASs_updateBuildInfo_args_info 000000018002dfd0     c16_MASs.obj
 0002:00000fd8       $unwind$sf_get_sim_state_info_c16_MASs 000000018002dfd8     c16_MASs.obj
 0002:00000fe0       $unwind$sf_opaque_initialize_c16_MASs 000000018002dfe0     c16_MASs.obj
 0002:00000fe8       $unwind$sf_opaque_enable_c16_MASs 000000018002dfe8     c16_MASs.obj
 0002:00000ff0       $unwind$sf_opaque_disable_c16_MASs 000000018002dff0     c16_MASs.obj
 0002:00000ff8       $unwind$sf_opaque_gateway_c16_MASs 000000018002dff8     c16_MASs.obj
 0002:00001000       $unwind$sf_opaque_get_sim_state_c16_MASs 000000018002e000     c16_MASs.obj
 0002:00001008       $unwind$sf_opaque_set_sim_state_c16_MASs 000000018002e008     c16_MASs.obj
 0002:00001010       $unwind$sf_opaque_terminate_c16_MASs 000000018002e010     c16_MASs.obj
 0002:00001018       $unwind$mdlProcessParameters_c16_MASs 000000018002e018     c16_MASs.obj
 0002:00001020       $unwind$mdlSetWorkWidths_c16_MASs 000000018002e020     c16_MASs.obj
 0002:00001028       $unwind$mdlRTW_c16_MASs    000000018002e028     c16_MASs.obj
 0002:00001030       $unwind$mdlStart_c16_MASs  000000018002e030     c16_MASs.obj
 0002:00001038       $unwind$sf_c23_MASs_get_eml_resolved_functions_info 000000018002e038     c23_MASs.obj
 0002:00001040       $unwind$sf_c23_MASs_get_check_sum 000000018002e040     c23_MASs.obj
 0002:00001048       $unwind$c23_MASs_method_dispatcher 000000018002e048     c23_MASs.obj
 0002:00001050       $unwind$chart_debug_initialization 000000018002e050     c23_MASs.obj
 0002:00001058       $unwind$chart_debug_initialize_data_addresses 000000018002e058     c23_MASs.obj
 0002:00001060       $unwind$initialize_c23_MASs 000000018002e060     c23_MASs.obj
 0002:00001068       $unwind$enable_c23_MASs    000000018002e068     c23_MASs.obj
 0002:00001070       $unwind$disable_c23_MASs   000000018002e070     c23_MASs.obj
 0002:00001078       $unwind$get_sim_state_c23_MASs 000000018002e078     c23_MASs.obj
 0002:00001080       $unwind$set_sim_state_c23_MASs 000000018002e080     c23_MASs.obj
 0002:00001088       $unwind$sf_gateway_c23_MASs 000000018002e088     c23_MASs.obj
 0002:00001090       $unwind$c23_chartstep_c23_MASs 000000018002e090     c23_MASs.obj
 0002:000010a0       $unwind$c23_sf_marshallOut 000000018002e0a0     c23_MASs.obj
 0002:000010a8       $unwind$c23_emlrt_marshallIn 000000018002e0a8     c23_MASs.obj
 0002:000010b0       $unwind$c23_b_emlrt_marshallIn 000000018002e0b0     c23_MASs.obj
 0002:000010b8       $unwind$c23_sf_marshallIn  000000018002e0b8     c23_MASs.obj
 0002:000010c0       $unwind$c23_mpower         000000018002e0c0     c23_MASs.obj
 0002:000010c8       $unwind$c23_fltpower_domain_error 000000018002e0c8     c23_MASs.obj
 0002:000010d0       $unwind$c23_error          000000018002e0d0     c23_MASs.obj
 0002:000010d8       $unwind$c23_b_mpower       000000018002e0d8     c23_MASs.obj
 0002:000010e0       $unwind$c23_b_error        000000018002e0e0     c23_MASs.obj
 0002:000010e8       $unwind$c23_c_mpower       000000018002e0e8     c23_MASs.obj
 0002:000010f0       $unwind$c23_d_mpower       000000018002e0f0     c23_MASs.obj
 0002:000010f8       $unwind$c23_c_error        000000018002e0f8     c23_MASs.obj
 0002:00001100       $unwind$c23_e_mpower       000000018002e100     c23_MASs.obj
 0002:00001108       $unwind$c23_d_emlrt_marshallIn 000000018002e108     c23_MASs.obj
 0002:00001110       $unwind$c23_e_emlrt_marshallIn 000000018002e110     c23_MASs.obj
 0002:00001118       $unwind$c23_b_log10        000000018002e118     c23_MASs.obj
 0002:00001120       $unwind$init_simulink_io_address 000000018002e120     c23_MASs.obj
 0002:00001128       $unwind$sf_c23_MASs_get_post_codegen_info 000000018002e128     c23_MASs.obj
 0002:00001130       $unwind$sf_c23_MASs_get_autoinheritance_info 000000018002e130     c23_MASs.obj
 0002:00001140       $unwind$sf_c23_MASs_third_party_uses_info 000000018002e140     c23_MASs.obj
 0002:00001148       $unwind$sf_c23_MASs_jit_fallback_info 000000018002e148     c23_MASs.obj
 0002:00001158       $unwind$sf_c23_MASs_updateBuildInfo_args_info 000000018002e158     c23_MASs.obj
 0002:00001160       $unwind$sf_get_sim_state_info_c23_MASs 000000018002e160     c23_MASs.obj
 0002:00001168       $unwind$sf_opaque_initialize_c23_MASs 000000018002e168     c23_MASs.obj
 0002:00001170       $unwind$sf_opaque_enable_c23_MASs 000000018002e170     c23_MASs.obj
 0002:00001178       $unwind$sf_opaque_disable_c23_MASs 000000018002e178     c23_MASs.obj
 0002:00001180       $unwind$sf_opaque_gateway_c23_MASs 000000018002e180     c23_MASs.obj
 0002:00001188       $unwind$sf_opaque_get_sim_state_c23_MASs 000000018002e188     c23_MASs.obj
 0002:00001190       $unwind$sf_opaque_set_sim_state_c23_MASs 000000018002e190     c23_MASs.obj
 0002:00001198       $unwind$sf_opaque_terminate_c23_MASs 000000018002e198     c23_MASs.obj
 0002:000011a0       $unwind$mdlProcessParameters_c23_MASs 000000018002e1a0     c23_MASs.obj
 0002:000011a8       $unwind$mdlSetWorkWidths_c23_MASs 000000018002e1a8     c23_MASs.obj
 0002:000011b0       $unwind$mdlRTW_c23_MASs    000000018002e1b0     c23_MASs.obj
 0002:000011b8       $unwind$mdlStart_c23_MASs  000000018002e1b8     c23_MASs.obj
 0002:000011c0       $unwind$sf_c30_MASs_get_eml_resolved_functions_info 000000018002e1c0     c30_MASs.obj
 0002:000011c8       $unwind$sf_c30_MASs_get_check_sum 000000018002e1c8     c30_MASs.obj
 0002:000011d0       $unwind$c30_MASs_method_dispatcher 000000018002e1d0     c30_MASs.obj
 0002:000011d8       $unwind$chart_debug_initialization 000000018002e1d8     c30_MASs.obj
 0002:000011e0       $unwind$chart_debug_initialize_data_addresses 000000018002e1e0     c30_MASs.obj
 0002:000011e8       $unwind$initialize_c30_MASs 000000018002e1e8     c30_MASs.obj
 0002:000011f0       $unwind$enable_c30_MASs    000000018002e1f0     c30_MASs.obj
 0002:000011f8       $unwind$disable_c30_MASs   000000018002e1f8     c30_MASs.obj
 0002:00001200       $unwind$get_sim_state_c30_MASs 000000018002e200     c30_MASs.obj
 0002:00001208       $unwind$set_sim_state_c30_MASs 000000018002e208     c30_MASs.obj
 0002:00001210       $unwind$sf_gateway_c30_MASs 000000018002e210     c30_MASs.obj
 0002:00001218       $unwind$c30_chartstep_c30_MASs 000000018002e218     c30_MASs.obj
 0002:00001228       $unwind$c30_sf_marshallOut 000000018002e228     c30_MASs.obj
 0002:00001230       $unwind$c30_emlrt_marshallIn 000000018002e230     c30_MASs.obj
 0002:00001238       $unwind$c30_b_emlrt_marshallIn 000000018002e238     c30_MASs.obj
 0002:00001240       $unwind$c30_sf_marshallIn  000000018002e240     c30_MASs.obj
 0002:00001248       $unwind$c30_mpower         000000018002e248     c30_MASs.obj
 0002:00001250       $unwind$c30_fltpower_domain_error 000000018002e250     c30_MASs.obj
 0002:00001258       $unwind$c30_error          000000018002e258     c30_MASs.obj
 0002:00001260       $unwind$c30_b_mpower       000000018002e260     c30_MASs.obj
 0002:00001268       $unwind$c30_b_error        000000018002e268     c30_MASs.obj
 0002:00001270       $unwind$c30_c_mpower       000000018002e270     c30_MASs.obj
 0002:00001278       $unwind$c30_d_mpower       000000018002e278     c30_MASs.obj
 0002:00001280       $unwind$c30_c_error        000000018002e280     c30_MASs.obj
 0002:00001288       $unwind$c30_e_mpower       000000018002e288     c30_MASs.obj
 0002:00001290       $unwind$c30_d_emlrt_marshallIn 000000018002e290     c30_MASs.obj
 0002:00001298       $unwind$c30_e_emlrt_marshallIn 000000018002e298     c30_MASs.obj
 0002:000012a0       $unwind$c30_b_log10        000000018002e2a0     c30_MASs.obj
 0002:000012a8       $unwind$init_simulink_io_address 000000018002e2a8     c30_MASs.obj
 0002:000012b0       $unwind$sf_c30_MASs_get_post_codegen_info 000000018002e2b0     c30_MASs.obj
 0002:000012b8       $unwind$sf_c30_MASs_get_autoinheritance_info 000000018002e2b8     c30_MASs.obj
 0002:000012c8       $unwind$sf_c30_MASs_third_party_uses_info 000000018002e2c8     c30_MASs.obj
 0002:000012d0       $unwind$sf_c30_MASs_jit_fallback_info 000000018002e2d0     c30_MASs.obj
 0002:000012e0       $unwind$sf_c30_MASs_updateBuildInfo_args_info 000000018002e2e0     c30_MASs.obj
 0002:000012e8       $unwind$sf_get_sim_state_info_c30_MASs 000000018002e2e8     c30_MASs.obj
 0002:000012f0       $unwind$sf_opaque_initialize_c30_MASs 000000018002e2f0     c30_MASs.obj
 0002:000012f8       $unwind$sf_opaque_enable_c30_MASs 000000018002e2f8     c30_MASs.obj
 0002:00001300       $unwind$sf_opaque_disable_c30_MASs 000000018002e300     c30_MASs.obj
 0002:00001308       $unwind$sf_opaque_gateway_c30_MASs 000000018002e308     c30_MASs.obj
 0002:00001310       $unwind$sf_opaque_get_sim_state_c30_MASs 000000018002e310     c30_MASs.obj
 0002:00001318       $unwind$sf_opaque_set_sim_state_c30_MASs 000000018002e318     c30_MASs.obj
 0002:00001320       $unwind$sf_opaque_terminate_c30_MASs 000000018002e320     c30_MASs.obj
 0002:00001328       $unwind$mdlProcessParameters_c30_MASs 000000018002e328     c30_MASs.obj
 0002:00001330       $unwind$mdlSetWorkWidths_c30_MASs 000000018002e330     c30_MASs.obj
 0002:00001338       $unwind$mdlRTW_c30_MASs    000000018002e338     c30_MASs.obj
 0002:00001340       $unwind$mdlStart_c30_MASs  000000018002e340     c30_MASs.obj
 0002:00001348       $unwind$sf_c37_MASs_get_eml_resolved_functions_info 000000018002e348     c37_MASs.obj
 0002:00001350       $unwind$sf_c37_MASs_get_check_sum 000000018002e350     c37_MASs.obj
 0002:00001358       $unwind$c37_MASs_method_dispatcher 000000018002e358     c37_MASs.obj
 0002:00001360       $unwind$chart_debug_initialization 000000018002e360     c37_MASs.obj
 0002:00001368       $unwind$chart_debug_initialize_data_addresses 000000018002e368     c37_MASs.obj
 0002:00001370       $unwind$initialize_c37_MASs 000000018002e370     c37_MASs.obj
 0002:00001378       $unwind$enable_c37_MASs    000000018002e378     c37_MASs.obj
 0002:00001380       $unwind$disable_c37_MASs   000000018002e380     c37_MASs.obj
 0002:00001388       $unwind$get_sim_state_c37_MASs 000000018002e388     c37_MASs.obj
 0002:00001390       $unwind$set_sim_state_c37_MASs 000000018002e390     c37_MASs.obj
 0002:00001398       $unwind$sf_gateway_c37_MASs 000000018002e398     c37_MASs.obj
 0002:000013a0       $unwind$c37_chartstep_c37_MASs 000000018002e3a0     c37_MASs.obj
 0002:000013b0       $unwind$c37_sf_marshallOut 000000018002e3b0     c37_MASs.obj
 0002:000013b8       $unwind$c37_emlrt_marshallIn 000000018002e3b8     c37_MASs.obj
 0002:000013c0       $unwind$c37_b_emlrt_marshallIn 000000018002e3c0     c37_MASs.obj
 0002:000013c8       $unwind$c37_sf_marshallIn  000000018002e3c8     c37_MASs.obj
 0002:000013d0       $unwind$c37_mpower         000000018002e3d0     c37_MASs.obj
 0002:000013d8       $unwind$c37_fltpower_domain_error 000000018002e3d8     c37_MASs.obj
 0002:000013e0       $unwind$c37_error          000000018002e3e0     c37_MASs.obj
 0002:000013e8       $unwind$c37_b_mpower       000000018002e3e8     c37_MASs.obj
 0002:000013f0       $unwind$c37_b_error        000000018002e3f0     c37_MASs.obj
 0002:000013f8       $unwind$c37_c_mpower       000000018002e3f8     c37_MASs.obj
 0002:00001400       $unwind$c37_d_mpower       000000018002e400     c37_MASs.obj
 0002:00001408       $unwind$c37_c_error        000000018002e408     c37_MASs.obj
 0002:00001410       $unwind$c37_e_mpower       000000018002e410     c37_MASs.obj
 0002:00001418       $unwind$c37_d_emlrt_marshallIn 000000018002e418     c37_MASs.obj
 0002:00001420       $unwind$c37_e_emlrt_marshallIn 000000018002e420     c37_MASs.obj
 0002:00001428       $unwind$c37_b_log10        000000018002e428     c37_MASs.obj
 0002:00001430       $unwind$init_simulink_io_address 000000018002e430     c37_MASs.obj
 0002:00001438       $unwind$sf_c37_MASs_get_post_codegen_info 000000018002e438     c37_MASs.obj
 0002:00001440       $unwind$sf_c37_MASs_get_autoinheritance_info 000000018002e440     c37_MASs.obj
 0002:00001450       $unwind$sf_c37_MASs_third_party_uses_info 000000018002e450     c37_MASs.obj
 0002:00001458       $unwind$sf_c37_MASs_jit_fallback_info 000000018002e458     c37_MASs.obj
 0002:00001468       $unwind$sf_c37_MASs_updateBuildInfo_args_info 000000018002e468     c37_MASs.obj
 0002:00001470       $unwind$sf_get_sim_state_info_c37_MASs 000000018002e470     c37_MASs.obj
 0002:00001478       $unwind$sf_opaque_initialize_c37_MASs 000000018002e478     c37_MASs.obj
 0002:00001480       $unwind$sf_opaque_enable_c37_MASs 000000018002e480     c37_MASs.obj
 0002:00001488       $unwind$sf_opaque_disable_c37_MASs 000000018002e488     c37_MASs.obj
 0002:00001490       $unwind$sf_opaque_gateway_c37_MASs 000000018002e490     c37_MASs.obj
 0002:00001498       $unwind$sf_opaque_get_sim_state_c37_MASs 000000018002e498     c37_MASs.obj
 0002:000014a0       $unwind$sf_opaque_set_sim_state_c37_MASs 000000018002e4a0     c37_MASs.obj
 0002:000014a8       $unwind$sf_opaque_terminate_c37_MASs 000000018002e4a8     c37_MASs.obj
 0002:000014b0       $unwind$mdlProcessParameters_c37_MASs 000000018002e4b0     c37_MASs.obj
 0002:000014b8       $unwind$mdlSetWorkWidths_c37_MASs 000000018002e4b8     c37_MASs.obj
 0002:000014c0       $unwind$mdlRTW_c37_MASs    000000018002e4c0     c37_MASs.obj
 0002:000014c8       $unwind$mdlStart_c37_MASs  000000018002e4c8     c37_MASs.obj
 0002:000014d0       $unwind$mexFunction        000000018002e4d0     MASs_sfun_registry.obj
 0002:000014d8       $unwind$_ssSetInputPortDirectFeedThroughFcn 000000018002e4d8     MASs_sfun_registry.obj
 0002:000014e0       $unwind$_ssGetInputPortSignalPtrsFcn 000000018002e4e0     MASs_sfun_registry.obj
 0002:000014e8       $unwind$_ssGetInputPortSignalFcn 000000018002e4e8     MASs_sfun_registry.obj
 0002:000014f0       $unwind$_ssSetInputPortReusableFcn 000000018002e4f0     MASs_sfun_registry.obj
 0002:00001500       $unwind$_ssSetOutputPortReusableFcn 000000018002e500     MASs_sfun_registry.obj
 0002:00001510       $unwind$_ssSetSymbolicDimsSupport 000000018002e510     MASs_sfun_registry.obj
 0002:00001518       $unwind$_ssRegisterSymbolicDimsExpr 000000018002e518     MASs_sfun_registry.obj
 0002:00001520       $unwind$_ssRegisterSymbolicDims 000000018002e520     MASs_sfun_registry.obj
 0002:00001528       $unwind$_ssRegisterSymbolicDimsString 000000018002e528     MASs_sfun_registry.obj
 0002:00001530       $unwind$_ssRegisterSymbolicDimsIntValue 000000018002e530     MASs_sfun_registry.obj
 0002:00001538       $unwind$_ssRegisterSymbolicDimsPlus 000000018002e538     MASs_sfun_registry.obj
 0002:00001540       $unwind$_ssRegisterSymbolicDimsMinus 000000018002e540     MASs_sfun_registry.obj
 0002:00001548       $unwind$_ssRegisterSymbolicDimsMultiply 000000018002e548     MASs_sfun_registry.obj
 0002:00001550       $unwind$_ssRegisterSymbolicDimsDivide 000000018002e550     MASs_sfun_registry.obj
 0002:00001558       $unwind$_ssGetNumSymbolicDims 000000018002e558     MASs_sfun_registry.obj
 0002:00001560       $unwind$_ssGetSymbolicDim  000000018002e560     MASs_sfun_registry.obj
 0002:00001568       $unwind$_ssSetInputPortSymbolicDimsId 000000018002e568     MASs_sfun_registry.obj
 0002:00001570       $unwind$_ssGetCompInputPortSymbolicDimsId 000000018002e570     MASs_sfun_registry.obj
 0002:00001578       $unwind$_ssSetCompInputPortSymbolicDimsId 000000018002e578     MASs_sfun_registry.obj
 0002:00001580       $unwind$_ssSetOutputPortSymbolicDimsId 000000018002e580     MASs_sfun_registry.obj
 0002:00001588       $unwind$_ssGetCompOutputPortSymbolicDimsId 000000018002e588     MASs_sfun_registry.obj
 0002:00001590       $unwind$_ssSetCompOutputPortSymbolicDimsId 000000018002e590     MASs_sfun_registry.obj
 0002:00001598       $unwind$_ssSetCompDWorkSymbolicDimsId 000000018002e598     MASs_sfun_registry.obj
 0002:000015a0       $unwind$ssGetIsZeroCrossControlDisabled 000000018002e5a0     MASs_sfun_registry.obj
 0002:000015a8       $unwind$ssSetIsInputPortUsedForContZcSignal 000000018002e5a8     MASs_sfun_registry.obj
 0002:000015b0       $unwind$ssSetZcSignalIsZcElementDisc 000000018002e5b0     MASs_sfun_registry.obj
 0002:000015c0       $unwind$ssSetZcSignalName  000000018002e5c0     MASs_sfun_registry.obj
 0002:000015c8       $unwind$ssSetZcSignalWidth 000000018002e5c8     MASs_sfun_registry.obj
 0002:000015d0       $unwind$ssSetZcSignalZcEventType 000000018002e5d0     MASs_sfun_registry.obj
 0002:000015d8       $unwind$ssSetZcSignalType  000000018002e5d8     MASs_sfun_registry.obj
 0002:000015e0       $unwind$ssSetZcSignalZcTol 000000018002e5e0     MASs_sfun_registry.obj
 0002:000015e8       $unwind$ssSetZcSignalNeedsEventNotification 000000018002e5e8     MASs_sfun_registry.obj
 0002:000015f0       $unwind$ssCreateAndAddZcSignalInfo 000000018002e5f0     MASs_sfun_registry.obj
 0002:000015f8       $unwind$ssCloneAndAddZcSignalInfo 000000018002e5f8     MASs_sfun_registry.obj
 0002:00001600       $unwind$ssGetNumZcSignals  000000018002e600     MASs_sfun_registry.obj
 0002:00001608       $unwind$ssGetZcSignalVector 000000018002e608     MASs_sfun_registry.obj
 0002:00001610       $unwind$ssGetZcSignalName  000000018002e610     MASs_sfun_registry.obj
 0002:00001618       $unwind$ssGetZcSignalWidth 000000018002e618     MASs_sfun_registry.obj
 0002:00001620       $unwind$ssGetZcSignalZcEventType 000000018002e620     MASs_sfun_registry.obj
 0002:00001628       $unwind$ssGetZcSignalZcEvents 000000018002e628     MASs_sfun_registry.obj
 0002:00001630       $unwind$ssGetZcSignalType  000000018002e630     MASs_sfun_registry.obj
 0002:00001638       $unwind$ssGetZcSignalZcTol 000000018002e638     MASs_sfun_registry.obj
 0002:00001640       $unwind$ssGetZcSignalNeedsEventNotification 000000018002e640     MASs_sfun_registry.obj
 0002:00001648       $unwind$ssGetZcSignalIsZcElementDisc 000000018002e648     MASs_sfun_registry.obj
 0002:00001658       $unwind$ssGetIsInputPortElementContinuous 000000018002e658     MASs_sfun_registry.obj
 0002:00001668       $unwind$ssGetDTypeIdFromMxArray 000000018002e668     MASs_sfun_registry.obj
 0002:00001670       $unwind$ssWriteRTWStr      000000018002e670     MASs_sfun_registry.obj
 0002:00001678       $unwind$ssWriteRTWNameValuePair 000000018002e678     MASs_sfun_registry.obj
 0002:00001680       $unwind$ssWriteRTWParamSettings 000000018002e680     MASs_sfun_registry.obj
 0002:00001688       $unwind$ssWriteRTWParameters 000000018002e688     MASs_sfun_registry.obj
 0002:00001690       $unwind$ssWriteRTWWorkVect 000000018002e690     MASs_sfun_registry.obj
 0002:000016a4       $unwind$ssWriteRTWMxVectParam 000000018002e6a4     MASs_sfun_registry.obj
 0002:000016ac       $unwind$ssWriteRTWMx2dMatParam 000000018002e6ac     MASs_sfun_registry.obj
 0002:000016b4       $unwind$_ssSetInputPortMatrixDimensions 000000018002e6b4     MASs_sfun_registry.obj
 0002:000016c0       $unwind$_ssSetOutputPortMatrixDimensions 000000018002e6c0     MASs_sfun_registry.obj
 0002:000016cc       $unwind$_ssSetInputPortVectorDimension 000000018002e6cc     MASs_sfun_registry.obj
 0002:000016d8       $unwind$_ssSetOutputPortVectorDimension 000000018002e6d8     MASs_sfun_registry.obj
 0002:000016e4       $unwind$ssIsRunTimeParamTunable 000000018002e6e4     MASs_sfun_registry.obj
 0002:000016ec       $unwind$ssGetSFuncBlockHandle 000000018002e6ec     MASs_sfun_registry.obj
 0002:000016f4       $unwind$_ssGetCurrentInputPortWidth 000000018002e6f4     MASs_sfun_registry.obj
 0002:000016fc       $unwind$_ssGetCurrentOutputPortWidth 000000018002e6fc     MASs_sfun_registry.obj
 0002:00001704       $unwind$_ssGetCallSystemNumFcnCallDestinations 000000018002e704     MASs_sfun_registry.obj
 0002:0000170c       $unwind$ssGetParameterTuningCompliance 000000018002e70c     MASs_sfun_registry.obj
 0002:00001714       $unwind$ssWarning          000000018002e714     MASs_sfun_registry.obj
 0002:00001728       $unwind$_ssGetAbsTol       000000018002e728     MASs_sfun_registry.obj
 0002:00001730       $unwind$sf_process_check_sum_call 000000018002e730     MASs_sfun_registry.obj
 0002:00001738       $unwind$sf_process_machine_uses_exported_functions_call 000000018002e738     MASs_sfun_registry.obj
 0002:00001748       $unwind$sf_process_autoinheritance_call 000000018002e748     MASs_sfun_registry.obj
 0002:00001758       $unwind$sf_process_get_third_party_uses_info_call 000000018002e758     MASs_sfun_registry.obj
 0002:00001768       $unwind$sf_process_get_jit_fallback_info_call 000000018002e768     MASs_sfun_registry.obj
 0002:00001778       $unwind$sf_process_get_updateBuildInfo_args_info_call 000000018002e778     MASs_sfun_registry.obj
 0002:00001788       $unwind$sf_process_get_eml_resolved_functions_info_call 000000018002e788     MASs_sfun_registry.obj
 0002:00001798       $unwind$sf_process_get_post_codegen_info 000000018002e798     MASs_sfun_registry.obj
 0002:000017a8       $unwind$sf_mex_unlock_call 000000018002e7a8     MASs_sfun_registry.obj
 0002:000017b8       $unwind$sf_debug_api_wrapper 000000018002e7b8     MASs_sfun_registry.obj
 0002:000017c0       $unwind$ProcessMexSfunctionCmdLineCall 000000018002e7c0     MASs_sfun_registry.obj
 0002:000017c8       $unwind$sf_machine_global_initializer_called 000000018002e7c8     MASs_sfun_registry.obj
 0002:000017d0       $unwind$sf_machine_global_method_dispatcher 000000018002e7d0     MASs_sfun_registry.obj
 0002:000017d8       $unwind$sf_machine_global_terminator 000000018002e7d8     MASs_sfun_registry.obj
 0002:000017e0       $unwind$sf_register_machine_exported_symbols 000000018002e7e0     MASs_sfun_registry.obj
 0002:000017e8       $unwind$sf_machine_global_initializer 000000018002e7e8     MASs_sfun_registry.obj
 0002:000017f0       $unwind$mdlGetSimState     000000018002e7f0     MASs_sfun_registry.obj
 0002:000017f8       $unwind$mdlSetSimState     000000018002e7f8     MASs_sfun_registry.obj
 0002:00001800       $unwind$mdlSetWorkWidths   000000018002e800     MASs_sfun_registry.obj
 0002:00001808       $unwind$mdlProcessParameters 000000018002e808     MASs_sfun_registry.obj
 0002:00001810       $unwind$mdl_start_processing 000000018002e810     MASs_sfun_registry.obj
 0002:00001818       $unwind$mdl_terminate_processing 000000018002e818     MASs_sfun_registry.obj
 0002:00001820       $unwind$mdlStart           000000018002e820     MASs_sfun_registry.obj
 0002:00001828       $unwind$mdlTerminate       000000018002e828     MASs_sfun_registry.obj
 0002:00001830       $unwind$mdlInitializeSizes 000000018002e830     MASs_sfun_registry.obj
 0002:00001838       $unwind$mdlInitializeSampleTimes 000000018002e838     MASs_sfun_registry.obj
 0002:00001840       $unwind$mdl_outputs_continuous_legacy 000000018002e840     MASs_sfun_registry.obj
 0002:00001848       $unwind$mdl_outputs_processing 000000018002e848     MASs_sfun_registry.obj
 0002:00001850       $unwind$mdl_zeroCrossings_processing 000000018002e850     MASs_sfun_registry.obj
 0002:00001858       $unwind$mdlZeroCrossings   000000018002e858     MASs_sfun_registry.obj
 0002:00001860       $unwind$mdl_derivatives_processing 000000018002e860     MASs_sfun_registry.obj
 0002:00001868       $unwind$mdlDerivatives     000000018002e868     MASs_sfun_registry.obj
 0002:00001870       $unwind$mdl_initialize_conditions_processing 000000018002e870     MASs_sfun_registry.obj
 0002:00001878       $unwind$mdlInitializeConditions 000000018002e878     MASs_sfun_registry.obj
 0002:00001880       $unwind$mdl_ext_mode_exec_processing 000000018002e880     MASs_sfun_registry.obj
 0002:00001888       $unwind$mdlExtModeExec     000000018002e888     MASs_sfun_registry.obj
 0002:00001890       $unwind$mdlRTW             000000018002e890     MASs_sfun_registry.obj
 0002:00001898       $unwind$mdl_enable_processing 000000018002e898     MASs_sfun_registry.obj
 0002:000018a0       $unwind$mdlEnable          000000018002e8a0     MASs_sfun_registry.obj
 0002:000018a8       $unwind$mdl_disable_processing 000000018002e8a8     MASs_sfun_registry.obj
 0002:000018b0       $unwind$mdlDisable         000000018002e8b0     MASs_sfun_registry.obj
 0002:000018b8       $unwind$mdlOutputs         000000018002e8b8     MASs_sfun_registry.obj
 0002:000018c0       $unwind$mdl_update_processing 000000018002e8c0     MASs_sfun_registry.obj
 0002:000018c8       $unwind$mdlUpdate          000000018002e8c8     MASs_sfun_registry.obj
 0002:000018d0       $unwind$ProcessMexSfunctionEveryCall 000000018002e8d0     MASs_sfun_registry.obj
 0002:000018d8       $unwind$_RegNumInputPortsCB 000000018002e8d8     MASs_sfun_registry.obj
 0002:000018e0       $unwind$_RegNumOutputPortsCB 000000018002e8e0     MASs_sfun_registry.obj
 0002:000018e8       $unwind$_CreateSimStruct   000000018002e8e8     MASs_sfun_registry.obj
 0002:000018f0       $unwind$_ssFatalError      000000018002e8f0     MASs_sfun_registry.obj
 0002:00001900       $unwind$_ProcessMexSfunctionCmdLineCall 000000018002e900     MASs_sfun_registry.obj
 0002:00001910       $unwind$__report_securityfailure 000000018002e910     MSVCRT:gs_report.obj
 0002:00001918       $unwind$__report_securityfailureEx 000000018002e918     MSVCRT:gs_report.obj
 0002:00001920       $unwind$__report_rangecheckfailure 000000018002e920     MSVCRT:gs_report.obj
 0002:00001928       $unwind$__raise_securityfailure 000000018002e928     MSVCRT:gs_report.obj
 0002:00001930       $unwind$__report_gsfailure 000000018002e930     MSVCRT:gs_report.obj
 0002:00001938       $unwind$__GSHandlerCheckCommon 000000018002e938     MSVCRT:gshandler.obj
 0002:00001940       $unwind$__GSHandlerCheck   000000018002e940     MSVCRT:gshandler.obj
 0002:00001948       $xdatasym                  000000018002e948     MSVCRT:amdsecgs.obj
 0002:0000194c       $unwind$_CRT_INIT          000000018002e94c     MSVCRT:crtdll.obj
 0002:00001968       $unwind$pre_c_init         000000018002e968     MSVCRT:crtdll.obj
 0002:00001970       $unwind$__DllMainCRTStartup 000000018002e970     MSVCRT:crtdll.obj
 0002:000019ac       $unwind$__DllMainCRTStartup$filt$0 000000018002e9ac     MSVCRT:crtdll.obj
 0002:000019b4       $unwind$__DllMainCRTStartup$fin$1 000000018002e9b4     MSVCRT:crtdll.obj
 0002:000019bc       $unwind$_DllMainCRTStartup 000000018002e9bc     MSVCRT:crtdll.obj
 0002:000019cc       $unwind$_IsNonwritableInCurrentImage 000000018002e9cc     MSVCRT:pesect.obj
 0002:000019f0       $unwind$_IsNonwritableInCurrentImage$filt$0 000000018002e9f0     MSVCRT:pesect.obj
 0002:000019f8       $unwind$atexit             000000018002e9f8     MSVCRT:atonexit.obj
 0002:00001a00       $unwind$_onexit            000000018002ea00     MSVCRT:atonexit.obj
 0002:00001a20       $unwind$_onexit$fin$0      000000018002ea20     MSVCRT:atonexit.obj
 0002:00001a28       $unwind$__atonexitinit     000000018002ea28     MSVCRT:atonexit.obj
 0002:00001a30       $unwind$__security_init_cookie 000000018002ea30     MSVCRT:gs_support.obj
 0002:00001a3c       $unwind$DllMain            000000018002ea3c     MSVCRT:dllmain.obj
 0002:00001a44       $unwind$_RTC_Initialize    000000018002ea44     MSVCRT:initsect.obj
 0002:00001a50       $unwind$_RTC_Terminate     000000018002ea50     MSVCRT:initsect.obj
 0002:00001a60       .edata                     000000018002ea60     MASs_sfun.exp
 0002:00001a88       rgpv                       000000018002ea88     MASs_sfun.exp
 0002:00001a8c       rgszName                   000000018002ea8c     MASs_sfun.exp
 0002:00001a90       rgwOrd                     000000018002ea90     MASs_sfun.exp
 0002:00001a92       szName                     000000018002ea92     MASs_sfun.exp
 0002:00001aa3       $N00001                    000000018002eaa3     MASs_sfun.exp
 0002:00002742       .idata$6                   000000018002f742     sf_runtime:sf_runtime.dll
 0002:000028d2       .idata$6                   000000018002f8d2     libmx:libmx.dll
 0002:00002954       .idata$6                   000000018002f954     libmex:libmex.dll
 0002:00002976       .idata$6                   000000018002f976     libut:libut.dll
 0002:000029ee       .idata$6                   000000018002f9ee     libmwmathutil:libmwmathutil.dll
 0002:00002ad2       .idata$6                   000000018002fad2     MSVCRT:MSVCR120.dll
 0002:00002c68       .idata$6                   000000018002fc68     kernel32:KERNEL32.dll
 0003:00000000       $SG17420                   0000000180030000     MASs_sfun.obj
 0003:00000020       $SG17432                   0000000180030020     MASs_sfun.obj
 0003:00000038       $SG17437                   0000000180030038     MASs_sfun.obj
 0003:00000050       $SG17442                   0000000180030050     MASs_sfun.obj
 0003:00000068       $SG17447                   0000000180030068     MASs_sfun.obj
 0003:00000080       $SG17452                   0000000180030080     MASs_sfun.obj
 0003:00000098       $SG17473                   0000000180030098     MASs_sfun.obj
 0003:000000b8       $SG17527                   00000001800300b8     MASs_sfun.obj
 0003:000000d8       $SG17536                   00000001800300d8     MASs_sfun.obj
 0003:000000f0       $SG17541                   00000001800300f0     MASs_sfun.obj
 0003:00000108       $SG17546                   0000000180030108     MASs_sfun.obj
 0003:00000120       $SG17551                   0000000180030120     MASs_sfun.obj
 0003:00000138       $SG17556                   0000000180030138     MASs_sfun.obj
 0003:00000150       $SG17581                   0000000180030150     MASs_sfun.obj
 0003:00000168       $SG17590                   0000000180030168     MASs_sfun.obj
 0003:00000180       $SG17595                   0000000180030180     MASs_sfun.obj
 0003:00000198       $SG17600                   0000000180030198     MASs_sfun.obj
 0003:000001b0       $SG17605                   00000001800301b0     MASs_sfun.obj
 0003:000001c8       $SG17610                   00000001800301c8     MASs_sfun.obj
 0003:000001e0       $SG17635                   00000001800301e0     MASs_sfun.obj
 0003:00000200       $SG17644                   0000000180030200     MASs_sfun.obj
 0003:00000218       $SG17649                   0000000180030218     MASs_sfun.obj
 0003:00000230       $SG17654                   0000000180030230     MASs_sfun.obj
 0003:00000248       $SG17659                   0000000180030248     MASs_sfun.obj
 0003:00000260       $SG17664                   0000000180030260     MASs_sfun.obj
 0003:00000278       $SG17690                   0000000180030278     MASs_sfun.obj
 0003:00000290       $SG17695                   0000000180030290     MASs_sfun.obj
 0003:000002a8       $SG17700                   00000001800302a8     MASs_sfun.obj
 0003:000002c0       $SG17705                   00000001800302c0     MASs_sfun.obj
 0003:000002d8       $SG17710                   00000001800302d8     MASs_sfun.obj
 0003:000002f0       $SG17718                   00000001800302f0     MASs_sfun.obj
 0003:000002f8       $SG17719                   00000001800302f8     MASs_sfun.obj
 0003:00000300       $SG17730                   0000000180030300     MASs_sfun.obj
 0003:00000308       $SG17731                   0000000180030308     MASs_sfun.obj
 0003:00000310       $SG17317                   0000000180030310     MASs_sfun.obj
 0003:00000328       $SG17323                   0000000180030328     MASs_sfun.obj
 0003:00000330       $SG17334                   0000000180030330     MASs_sfun.obj
 0003:0000033c       $SG17345                   000000018003033c     MASs_sfun.obj
 0003:00000344       $SG17383                   0000000180030344     MASs_sfun.obj
 0003:00000350       $SG20480                   0000000180030350     c9_MASs.obj
 0003:00000364       $SG20481                   0000000180030364     c9_MASs.obj
 0003:0000036c       $SG20489                   000000018003036c     c9_MASs.obj
 0003:00000374       $SG20579                   0000000180030374     c9_MASs.obj
 0003:0000037c       $SG19630                   000000018003037c     c9_MASs.obj
 0003:00000380       $SG20482                   0000000180030380     c9_MASs.obj
 0003:0000038c       $SG20485                   000000018003038c     c9_MASs.obj
 0003:00000394       $SG20487                   0000000180030394     c9_MASs.obj
 0003:0000039c       $SG20488                   000000018003039c     c9_MASs.obj
 0003:000003a4       $SG20490                   00000001800303a4     c9_MASs.obj
 0003:000003ac       $SG20638                   00000001800303ac     c9_MASs.obj
 0003:000003b4       $SG19631                   00000001800303b4     c9_MASs.obj
 0003:000003b8       $SG20491                   00000001800303b8     c9_MASs.obj
 0003:000003cc       $SG20495                   00000001800303cc     c9_MASs.obj
 0003:000003d4       $SG19632                   00000001800303d4     c9_MASs.obj
 0003:000003d8       $SG20492                   00000001800303d8     c9_MASs.obj
 0003:000003ec       $SG20494                   00000001800303ec     c9_MASs.obj
 0003:000003f4       $SG20505                   00000001800303f4     c9_MASs.obj
 0003:000003fc       $SG19633                   00000001800303fc     c9_MASs.obj
 0003:00000400       $SG20496                   0000000180030400     c9_MASs.obj
 0003:00000414       $SG20497                   0000000180030414     c9_MASs.obj
 0003:0000041c       $SG20506                   000000018003041c     c9_MASs.obj
 0003:00000424       $SG19634                   0000000180030424     c9_MASs.obj
 0003:00000428       $SG20498                   0000000180030428     c9_MASs.obj
 0003:00000434       $SG20501                   0000000180030434     c9_MASs.obj
 0003:0000043c       $SG20503                   000000018003043c     c9_MASs.obj
 0003:00000444       $SG20504                   0000000180030444     c9_MASs.obj
 0003:0000044c       $SG20511                   000000018003044c     c9_MASs.obj
 0003:00000454       $SG19635                   0000000180030454     c9_MASs.obj
 0003:00000458       $SG20507                   0000000180030458     c9_MASs.obj
 0003:0000046c       $SG20521                   000000018003046c     c9_MASs.obj
 0003:00000474       $SG19636                   0000000180030474     c9_MASs.obj
 0003:00000478       $SG20508                   0000000180030478     c9_MASs.obj
 0003:0000048c       $SG20510                   000000018003048c     c9_MASs.obj
 0003:00000494       $SG20522                   0000000180030494     c9_MASs.obj
 0003:0000049c       $SG20661                   000000018003049c     c9_MASs.obj
 0003:000004a0       $SG20512                   00000001800304a0     c9_MASs.obj
 0003:000004b4       $SG20513                   00000001800304b4     c9_MASs.obj
 0003:000004bc       $SG20527                   00000001800304bc     c9_MASs.obj
 0003:000004c4       $SG19637                   00000001800304c4     c9_MASs.obj
 0003:000004c8       $SG20514                   00000001800304c8     c9_MASs.obj
 0003:000004d4       $SG20517                   00000001800304d4     c9_MASs.obj
 0003:000004dc       $SG20519                   00000001800304dc     c9_MASs.obj
 0003:000004e4       $SG20520                   00000001800304e4     c9_MASs.obj
 0003:000004ec       $SG20537                   00000001800304ec     c9_MASs.obj
 0003:000004f4       $SG19639                   00000001800304f4     c9_MASs.obj
 0003:000004f8       $SG20523                   00000001800304f8     c9_MASs.obj
 0003:0000050c       $SG20538                   000000018003050c     c9_MASs.obj
 0003:00000514       $SG19640                   0000000180030514     c9_MASs.obj
 0003:00000518       $SG20524                   0000000180030518     c9_MASs.obj
 0003:0000052c       $SG20526                   000000018003052c     c9_MASs.obj
 0003:00000534       $SG20543                   0000000180030534     c9_MASs.obj
 0003:0000053c       $SG19641                   000000018003053c     c9_MASs.obj
 0003:00000540       $SG20528                   0000000180030540     c9_MASs.obj
 0003:00000554       $SG20529                   0000000180030554     c9_MASs.obj
 0003:0000055c       $SG20553                   000000018003055c     c9_MASs.obj
 0003:00000564       $SG19642                   0000000180030564     c9_MASs.obj
 0003:00000568       $SG20530                   0000000180030568     c9_MASs.obj
 0003:00000574       $SG20533                   0000000180030574     c9_MASs.obj
 0003:0000057c       $SG20535                   000000018003057c     c9_MASs.obj
 0003:00000584       $SG20536                   0000000180030584     c9_MASs.obj
 0003:0000058c       $SG20554                   000000018003058c     c9_MASs.obj
 0003:00000594       $SG19643                   0000000180030594     c9_MASs.obj
 0003:00000598       $SG20539                   0000000180030598     c9_MASs.obj
 0003:000005ac       $SG20559                   00000001800305ac     c9_MASs.obj
 0003:000005b4       $SG19645                   00000001800305b4     c9_MASs.obj
 0003:000005b8       $SG20540                   00000001800305b8     c9_MASs.obj
 0003:000005cc       $SG20542                   00000001800305cc     c9_MASs.obj
 0003:000005d4       $SG20569                   00000001800305d4     c9_MASs.obj
 0003:000005dc       $SG19646                   00000001800305dc     c9_MASs.obj
 0003:000005e0       $SG20544                   00000001800305e0     c9_MASs.obj
 0003:000005f4       $SG20545                   00000001800305f4     c9_MASs.obj
 0003:000005fc       $SG20570                   00000001800305fc     c9_MASs.obj
 0003:00000604       $SG19647                   0000000180030604     c9_MASs.obj
 0003:00000608       $SG20546                   0000000180030608     c9_MASs.obj
 0003:00000614       $SG20549                   0000000180030614     c9_MASs.obj
 0003:0000061c       $SG20551                   000000018003061c     c9_MASs.obj
 0003:00000624       $SG20552                   0000000180030624     c9_MASs.obj
 0003:0000062c       $SG20575                   000000018003062c     c9_MASs.obj
 0003:00000634       $SG19648                   0000000180030634     c9_MASs.obj
 0003:00000638       $SG20555                   0000000180030638     c9_MASs.obj
 0003:0000064c       $SG20595                   000000018003064c     c9_MASs.obj
 0003:00000654       $SG19649                   0000000180030654     c9_MASs.obj
 0003:00000658       $SG20556                   0000000180030658     c9_MASs.obj
 0003:0000066c       $SG20558                   000000018003066c     c9_MASs.obj
 0003:00000674       $SG20596                   0000000180030674     c9_MASs.obj
 0003:0000067c       $SG19650                   000000018003067c     c9_MASs.obj
 0003:00000684       $SG19652                   0000000180030684     c9_MASs.obj
 0003:00000688       $SG20560                   0000000180030688     c9_MASs.obj
 0003:0000069c       $SG20561                   000000018003069c     c9_MASs.obj
 0003:000006a4       $SG20601                   00000001800306a4     c9_MASs.obj
 0003:000006ac       $SG19653                   00000001800306ac     c9_MASs.obj
 0003:000006b0       $SG20562                   00000001800306b0     c9_MASs.obj
 0003:000006bc       $SG20565                   00000001800306bc     c9_MASs.obj
 0003:000006c4       $SG20567                   00000001800306c4     c9_MASs.obj
 0003:000006cc       $SG20568                   00000001800306cc     c9_MASs.obj
 0003:000006d4       $SG20611                   00000001800306d4     c9_MASs.obj
 0003:000006dc       $SG19654                   00000001800306dc     c9_MASs.obj
 0003:000006e0       $SG20571                   00000001800306e0     c9_MASs.obj
 0003:000006f4       $SG20612                   00000001800306f4     c9_MASs.obj
 0003:000006fc       $SG19655                   00000001800306fc     c9_MASs.obj
 0003:00000700       $SG20572                   0000000180030700     c9_MASs.obj
 0003:00000714       $SG20574                   0000000180030714     c9_MASs.obj
 0003:0000071c       $SG20617                   000000018003071c     c9_MASs.obj
 0003:00000724       $SG19656                   0000000180030724     c9_MASs.obj
 0003:00000728       $SG20576                   0000000180030728     c9_MASs.obj
 0003:0000073c       $SG20577                   000000018003073c     c9_MASs.obj
 0003:00000744       $SG20627                   0000000180030744     c9_MASs.obj
 0003:0000074c       $SG19657                   000000018003074c     c9_MASs.obj
 0003:00000750       $SG20578                   0000000180030750     c9_MASs.obj
 0003:0000075c       $SG19658                   000000018003075c     c9_MASs.obj
 0003:00000760       $SG20580                   0000000180030760     c9_MASs.obj
 0003:0000076c       $SG20582                   000000018003076c     c9_MASs.obj
 0003:00000774       $SG20583                   0000000180030774     c9_MASs.obj
 0003:0000077c       $SG20584                   000000018003077c     c9_MASs.obj
 0003:00000784       $SG20585                   0000000180030784     c9_MASs.obj
 0003:0000078c       $SG20628                   000000018003078c     c9_MASs.obj
 0003:00000794       $SG19659                   0000000180030794     c9_MASs.obj
 0003:00000798       $SG20586                   0000000180030798     c9_MASs.obj
 0003:000007a4       $SG19660                   00000001800307a4     c9_MASs.obj
 0003:000007a8       $SG20587                   00000001800307a8     c9_MASs.obj
 0003:000007b4       $SG20591                   00000001800307b4     c9_MASs.obj
 0003:000007bc       $SG20593                   00000001800307bc     c9_MASs.obj
 0003:000007c4       $SG20594                   00000001800307c4     c9_MASs.obj
 0003:000007cc       $SG20633                   00000001800307cc     c9_MASs.obj
 0003:000007d4       $SG19661                   00000001800307d4     c9_MASs.obj
 0003:000007d8       $SG20597                   00000001800307d8     c9_MASs.obj
 0003:000007ec       $SG19662                   00000001800307ec     c9_MASs.obj
 0003:000007f0       $SG20598                   00000001800307f0     c9_MASs.obj
 0003:00000804       $SG20600                   0000000180030804     c9_MASs.obj
 0003:0000080c       $SG20715                   000000018003080c     c9_MASs.obj
 0003:00000810       $SG20602                   0000000180030810     c9_MASs.obj
 0003:00000824       $SG20603                   0000000180030824     c9_MASs.obj
 0003:0000082c       $SG20716                   000000018003082c     c9_MASs.obj
 0003:00000830       $SG20604                   0000000180030830     c9_MASs.obj
 0003:0000083c       $SG20607                   000000018003083c     c9_MASs.obj
 0003:00000844       $SG20609                   0000000180030844     c9_MASs.obj
 0003:0000084c       $SG20610                   000000018003084c     c9_MASs.obj
 0003:00000854       $SG20717                   0000000180030854     c9_MASs.obj
 0003:00000858       $SG20613                   0000000180030858     c9_MASs.obj
 0003:0000086c       $SG20718                   000000018003086c     c9_MASs.obj
 0003:00000870       $SG20614                   0000000180030870     c9_MASs.obj
 0003:00000884       $SG20616                   0000000180030884     c9_MASs.obj
 0003:0000088c       $SG20719                   000000018003088c     c9_MASs.obj
 0003:00000890       $SG20618                   0000000180030890     c9_MASs.obj
 0003:000008a4       $SG20619                   00000001800308a4     c9_MASs.obj
 0003:000008ac       $SG20720                   00000001800308ac     c9_MASs.obj
 0003:000008b0       $SG20620                   00000001800308b0     c9_MASs.obj
 0003:000008bc       $SG20623                   00000001800308bc     c9_MASs.obj
 0003:000008c4       $SG20625                   00000001800308c4     c9_MASs.obj
 0003:000008cc       $SG20626                   00000001800308cc     c9_MASs.obj
 0003:000008d4       $SG20721                   00000001800308d4     c9_MASs.obj
 0003:000008d8       $SG20629                   00000001800308d8     c9_MASs.obj
 0003:000008ec       $SG20722                   00000001800308ec     c9_MASs.obj
 0003:000008f0       $SG20630                   00000001800308f0     c9_MASs.obj
 0003:00000904       $SG20632                   0000000180030904     c9_MASs.obj
 0003:0000090c       $SG20723                   000000018003090c     c9_MASs.obj
 0003:00000910       $SG20634                   0000000180030910     c9_MASs.obj
 0003:00000924       $SG20635                   0000000180030924     c9_MASs.obj
 0003:0000092c       $SG20724                   000000018003092c     c9_MASs.obj
 0003:00000930       $SG20636                   0000000180030930     c9_MASs.obj
 0003:0000093c       $SG20725                   000000018003093c     c9_MASs.obj
 0003:00000940       $SG20637                   0000000180030940     c9_MASs.obj
 0003:00000948       $SG20640                   0000000180030948     c9_MASs.obj
 0003:00000958       $SG20649                   0000000180030958     c9_MASs.obj
 0003:00000968       $SG20650                   0000000180030968     c9_MASs.obj
 0003:00000978       $SG20651                   0000000180030978     c9_MASs.obj
 0003:00000988       $SG20652                   0000000180030988     c9_MASs.obj
 0003:00000998       $SG20653                   0000000180030998     c9_MASs.obj
 0003:000009b0       c9_debug_family_names      00000001800309b0     c9_MASs.obj
 0003:00000ab8       $SG20654                   0000000180030ab8     c9_MASs.obj
 0003:00000acc       $SG19880                   0000000180030acc     c9_MASs.obj
 0003:00000ad0       $SG20655                   0000000180030ad0     c9_MASs.obj
 0003:00000ae8       $SG20656                   0000000180030ae8     c9_MASs.obj
 0003:00000b00       $SG20657                   0000000180030b00     c9_MASs.obj
 0003:00000b14       $SG19882                   0000000180030b14     c9_MASs.obj
 0003:00000b18       $SG20658                   0000000180030b18     c9_MASs.obj
 0003:00000b2c       $SG19638                   0000000180030b2c     c9_MASs.obj
 0003:00000b34       $SG19884                   0000000180030b34     c9_MASs.obj
 0003:00000b38       $SG20663                   0000000180030b38     c9_MASs.obj
 0003:00000b48       $SG20665                   0000000180030b48     c9_MASs.obj
 0003:00000b50       $SG19644                   0000000180030b50     c9_MASs.obj
 0003:00000b58       $SG19651                   0000000180030b58     c9_MASs.obj
 0003:00000b60       $SG20677                   0000000180030b60     c9_MASs.obj
 0003:00000b84       $SG19886                   0000000180030b84     c9_MASs.obj
 0003:00000b88       $SG20678                   0000000180030b88     c9_MASs.obj
 0003:00000bac       $SG19893                   0000000180030bac     c9_MASs.obj
 0003:00000bb0       $SG20679                   0000000180030bb0     c9_MASs.obj
 0003:00000bcc       $SG19894                   0000000180030bcc     c9_MASs.obj
 0003:00000bd0       $SG20680                   0000000180030bd0     c9_MASs.obj
 0003:00000bec       $SG19895                   0000000180030bec     c9_MASs.obj
 0003:00000bf0       $SG20687                   0000000180030bf0     c9_MASs.obj
 0003:00000c14       $SG19896                   0000000180030c14     c9_MASs.obj
 0003:00000c18       $SG20688                   0000000180030c18     c9_MASs.obj
 0003:00000c34       $SG19897                   0000000180030c34     c9_MASs.obj
 0003:00000c38       $SG20693                   0000000180030c38     c9_MASs.obj
 0003:00000c48       $SG20694                   0000000180030c48     c9_MASs.obj
 0003:00000c58       $SG20695                   0000000180030c58     c9_MASs.obj
 0003:00000c60       $SG20696                   0000000180030c60     c9_MASs.obj
 0003:00000c68       $SG20806                   0000000180030c68     c9_MASs.obj
 0003:00000c80       $SG20699                   0000000180030c80     c9_MASs.obj
 0003:00000d04       $SG19898                   0000000180030d04     c9_MASs.obj
 0003:00000d08       $SG20896                   0000000180030d08     c9_MASs.obj
 0003:00000d30       $SG20700                   0000000180030d30     c9_MASs.obj
 0003:00000db4       $SG20110                   0000000180030db4     c9_MASs.obj
 0003:00000db8       $SG20731                   0000000180030db8     c9_MASs.obj
 0003:00000dc8       $SG20919                   0000000180030dc8     c9_MASs.obj
 0003:00000dd8       $SG20920                   0000000180030dd8     c9_MASs.obj
 0003:00000dec       $SG20211                   0000000180030dec     c9_MASs.obj
 0003:00000df0       $SG19899                   0000000180030df0     c9_MASs.obj
 0003:00000e04       ?c9_c_u@?1??c9_b_error@@9@9 0000000180030e04     c9_MASs.obj
 0003:00000e08       $SG19900                   0000000180030e08     c9_MASs.obj
 0003:00000e1c       $SG20243                   0000000180030e1c     c9_MASs.obj
 0003:00000e20       $SG20930                   0000000180030e20     c9_MASs.obj
 0003:00000e50       $SG20958                   0000000180030e50     c9_MASs.obj
 0003:00000eac       $SG20245                   0000000180030eac     c9_MASs.obj
 0003:00000eb0       $SG20154                   0000000180030eb0     c9_MASs.obj
 0003:00000ec0       ?c9_b_u@?1??c9_error@@9@9  0000000180030ec0     c9_MASs.obj
 0003:00000ee0       $SG20212                   0000000180030ee0     c9_MASs.obj
 0003:00000ee8       $SG20213                   0000000180030ee8     c9_MASs.obj
 0003:00000ef0       ?c9_b_u@?1??c9_b_error@@9@9 0000000180030ef0     c9_MASs.obj
 0003:00000f10       $SG20246                   0000000180030f10     c9_MASs.obj
 0003:00000f18       $SG20247                   0000000180030f18     c9_MASs.obj
 0003:00000f20       ?c9_b_u@?1??c9_c_error@@9@9 0000000180030f20     c9_MASs.obj
 0003:00000f40       ?c9_c_u@?1??c9_c_error@@9@9 0000000180030f40     c9_MASs.obj
 0003:00000f48       $SG20298                   0000000180030f48     c9_MASs.obj
 0003:00000f4c       $SG20300                   0000000180030f4c     c9_MASs.obj
 0003:00000f50       $SG20301                   0000000180030f50     c9_MASs.obj
 0003:00000f58       $SG20302                   0000000180030f58     c9_MASs.obj
 0003:00000f60       $SG20330                   0000000180030f60     c9_MASs.obj
 0003:00000f64       $SG20429                   0000000180030f64     c9_MASs.obj
 0003:00000f70       $SG20427                   0000000180030f70     c9_MASs.obj
 0003:00000f80       $SG20428                   0000000180030f80     c9_MASs.obj
 0003:00000f8c       $SG20430                   0000000180030f8c     c9_MASs.obj
 0003:00000f98       $SG20431                   0000000180030f98     c9_MASs.obj
 0003:00000fa8       $SG20432                   0000000180030fa8     c9_MASs.obj
 0003:00000fb8       $SG20433                   0000000180030fb8     c9_MASs.obj
 0003:00000fc0       $SG20434                   0000000180030fc0     c9_MASs.obj
 0003:00000fc8       $SG20435                   0000000180030fc8     c9_MASs.obj
 0003:00000fd0       $SG20436                   0000000180030fd0     c9_MASs.obj
 0003:00000fd8       $SG20437                   0000000180030fd8     c9_MASs.obj
 0003:00000fe8       $SG20438                   0000000180030fe8     c9_MASs.obj
 0003:00000ff8       $SG20441                   0000000180030ff8     c9_MASs.obj
 0003:00001010       $SG20442                   0000000180031010     c9_MASs.obj
 0003:0000101c       $SG20444                   000000018003101c     c9_MASs.obj
 0003:00001024       $SG20445                   0000000180031024     c9_MASs.obj
 0003:0000102c       $SG20446                   000000018003102c     c9_MASs.obj
 0003:00001034       $SG20447                   0000000180031034     c9_MASs.obj
 0003:00001040       $SG20448                   0000000180031040     c9_MASs.obj
 0003:00001050       $SG20449                   0000000180031050     c9_MASs.obj
 0003:0000105c       $SG20453                   000000018003105c     c9_MASs.obj
 0003:00001064       $SG20455                   0000000180031064     c9_MASs.obj
 0003:0000106c       $SG20456                   000000018003106c     c9_MASs.obj
 0003:00001074       $SG20457                   0000000180031074     c9_MASs.obj
 0003:0000107c       $SG20458                   000000018003107c     c9_MASs.obj
 0003:00001088       $SG20459                   0000000180031088     c9_MASs.obj
 0003:000010a0       $SG20460                   00000001800310a0     c9_MASs.obj
 0003:000010b4       $SG20462                   00000001800310b4     c9_MASs.obj
 0003:000010bc       $SG20463                   00000001800310bc     c9_MASs.obj
 0003:000010c8       $SG20464                   00000001800310c8     c9_MASs.obj
 0003:000010dc       $SG20465                   00000001800310dc     c9_MASs.obj
 0003:000010e8       $SG20466                   00000001800310e8     c9_MASs.obj
 0003:000010f4       $SG20469                   00000001800310f4     c9_MASs.obj
 0003:000010fc       $SG20471                   00000001800310fc     c9_MASs.obj
 0003:00001104       $SG20472                   0000000180031104     c9_MASs.obj
 0003:0000110c       $SG20473                   000000018003110c     c9_MASs.obj
 0003:00001114       $SG20474                   0000000180031114     c9_MASs.obj
 0003:00001120       $SG20475                   0000000180031120     c9_MASs.obj
 0003:00001138       $SG20476                   0000000180031138     c9_MASs.obj
 0003:0000114c       $SG20478                   000000018003114c     c9_MASs.obj
 0003:00001154       $SG20479                   0000000180031154     c9_MASs.obj
 0003:00001160       $SG20480                   0000000180031160     c16_MASs.obj
 0003:00001174       $SG20481                   0000000180031174     c16_MASs.obj
 0003:0000117c       $SG20489                   000000018003117c     c16_MASs.obj
 0003:00001184       $SG20579                   0000000180031184     c16_MASs.obj
 0003:0000118c       $SG19630                   000000018003118c     c16_MASs.obj
 0003:00001190       $SG20482                   0000000180031190     c16_MASs.obj
 0003:0000119c       $SG20485                   000000018003119c     c16_MASs.obj
 0003:000011a4       $SG20487                   00000001800311a4     c16_MASs.obj
 0003:000011ac       $SG20488                   00000001800311ac     c16_MASs.obj
 0003:000011b4       $SG20490                   00000001800311b4     c16_MASs.obj
 0003:000011bc       $SG20638                   00000001800311bc     c16_MASs.obj
 0003:000011c4       $SG19631                   00000001800311c4     c16_MASs.obj
 0003:000011c8       $SG20491                   00000001800311c8     c16_MASs.obj
 0003:000011dc       $SG20495                   00000001800311dc     c16_MASs.obj
 0003:000011e4       $SG19632                   00000001800311e4     c16_MASs.obj
 0003:000011e8       $SG20492                   00000001800311e8     c16_MASs.obj
 0003:000011fc       $SG20494                   00000001800311fc     c16_MASs.obj
 0003:00001204       $SG20505                   0000000180031204     c16_MASs.obj
 0003:0000120c       $SG19633                   000000018003120c     c16_MASs.obj
 0003:00001210       $SG20496                   0000000180031210     c16_MASs.obj
 0003:00001224       $SG20497                   0000000180031224     c16_MASs.obj
 0003:0000122c       $SG20506                   000000018003122c     c16_MASs.obj
 0003:00001234       $SG19634                   0000000180031234     c16_MASs.obj
 0003:00001238       $SG20498                   0000000180031238     c16_MASs.obj
 0003:00001244       $SG20501                   0000000180031244     c16_MASs.obj
 0003:0000124c       $SG20503                   000000018003124c     c16_MASs.obj
 0003:00001254       $SG20504                   0000000180031254     c16_MASs.obj
 0003:0000125c       $SG20511                   000000018003125c     c16_MASs.obj
 0003:00001264       $SG19635                   0000000180031264     c16_MASs.obj
 0003:00001268       $SG20507                   0000000180031268     c16_MASs.obj
 0003:0000127c       $SG20521                   000000018003127c     c16_MASs.obj
 0003:00001284       $SG19636                   0000000180031284     c16_MASs.obj
 0003:00001288       $SG20508                   0000000180031288     c16_MASs.obj
 0003:0000129c       $SG20510                   000000018003129c     c16_MASs.obj
 0003:000012a4       $SG20522                   00000001800312a4     c16_MASs.obj
 0003:000012ac       $SG20661                   00000001800312ac     c16_MASs.obj
 0003:000012b0       $SG20512                   00000001800312b0     c16_MASs.obj
 0003:000012c4       $SG20513                   00000001800312c4     c16_MASs.obj
 0003:000012cc       $SG20527                   00000001800312cc     c16_MASs.obj
 0003:000012d4       $SG19637                   00000001800312d4     c16_MASs.obj
 0003:000012d8       $SG20514                   00000001800312d8     c16_MASs.obj
 0003:000012e4       $SG20517                   00000001800312e4     c16_MASs.obj
 0003:000012ec       $SG20519                   00000001800312ec     c16_MASs.obj
 0003:000012f4       $SG20520                   00000001800312f4     c16_MASs.obj
 0003:000012fc       $SG20537                   00000001800312fc     c16_MASs.obj
 0003:00001304       $SG19639                   0000000180031304     c16_MASs.obj
 0003:00001308       $SG20523                   0000000180031308     c16_MASs.obj
 0003:0000131c       $SG20538                   000000018003131c     c16_MASs.obj
 0003:00001324       $SG19640                   0000000180031324     c16_MASs.obj
 0003:00001328       $SG20524                   0000000180031328     c16_MASs.obj
 0003:0000133c       $SG20526                   000000018003133c     c16_MASs.obj
 0003:00001344       $SG20543                   0000000180031344     c16_MASs.obj
 0003:0000134c       $SG19641                   000000018003134c     c16_MASs.obj
 0003:00001350       $SG20528                   0000000180031350     c16_MASs.obj
 0003:00001364       $SG20529                   0000000180031364     c16_MASs.obj
 0003:0000136c       $SG20553                   000000018003136c     c16_MASs.obj
 0003:00001374       $SG19642                   0000000180031374     c16_MASs.obj
 0003:00001378       $SG20530                   0000000180031378     c16_MASs.obj
 0003:00001384       $SG20533                   0000000180031384     c16_MASs.obj
 0003:0000138c       $SG20535                   000000018003138c     c16_MASs.obj
 0003:00001394       $SG20536                   0000000180031394     c16_MASs.obj
 0003:0000139c       $SG20554                   000000018003139c     c16_MASs.obj
 0003:000013a4       $SG19643                   00000001800313a4     c16_MASs.obj
 0003:000013a8       $SG20539                   00000001800313a8     c16_MASs.obj
 0003:000013bc       $SG20559                   00000001800313bc     c16_MASs.obj
 0003:000013c4       $SG19645                   00000001800313c4     c16_MASs.obj
 0003:000013c8       $SG20540                   00000001800313c8     c16_MASs.obj
 0003:000013dc       $SG20542                   00000001800313dc     c16_MASs.obj
 0003:000013e4       $SG20569                   00000001800313e4     c16_MASs.obj
 0003:000013ec       $SG19646                   00000001800313ec     c16_MASs.obj
 0003:000013f0       $SG20544                   00000001800313f0     c16_MASs.obj
 0003:00001404       $SG20545                   0000000180031404     c16_MASs.obj
 0003:0000140c       $SG20570                   000000018003140c     c16_MASs.obj
 0003:00001414       $SG19647                   0000000180031414     c16_MASs.obj
 0003:00001418       $SG20546                   0000000180031418     c16_MASs.obj
 0003:00001424       $SG20549                   0000000180031424     c16_MASs.obj
 0003:0000142c       $SG20551                   000000018003142c     c16_MASs.obj
 0003:00001434       $SG20552                   0000000180031434     c16_MASs.obj
 0003:0000143c       $SG20575                   000000018003143c     c16_MASs.obj
 0003:00001444       $SG19648                   0000000180031444     c16_MASs.obj
 0003:00001448       $SG20555                   0000000180031448     c16_MASs.obj
 0003:0000145c       $SG20595                   000000018003145c     c16_MASs.obj
 0003:00001464       $SG19649                   0000000180031464     c16_MASs.obj
 0003:00001468       $SG20556                   0000000180031468     c16_MASs.obj
 0003:0000147c       $SG20558                   000000018003147c     c16_MASs.obj
 0003:00001484       $SG20596                   0000000180031484     c16_MASs.obj
 0003:0000148c       $SG19650                   000000018003148c     c16_MASs.obj
 0003:00001494       $SG19652                   0000000180031494     c16_MASs.obj
 0003:00001498       $SG20560                   0000000180031498     c16_MASs.obj
 0003:000014ac       $SG20561                   00000001800314ac     c16_MASs.obj
 0003:000014b4       $SG20601                   00000001800314b4     c16_MASs.obj
 0003:000014bc       $SG19653                   00000001800314bc     c16_MASs.obj
 0003:000014c0       $SG20562                   00000001800314c0     c16_MASs.obj
 0003:000014cc       $SG20565                   00000001800314cc     c16_MASs.obj
 0003:000014d4       $SG20567                   00000001800314d4     c16_MASs.obj
 0003:000014dc       $SG20568                   00000001800314dc     c16_MASs.obj
 0003:000014e4       $SG20611                   00000001800314e4     c16_MASs.obj
 0003:000014ec       $SG19654                   00000001800314ec     c16_MASs.obj
 0003:000014f0       $SG20571                   00000001800314f0     c16_MASs.obj
 0003:00001504       $SG20612                   0000000180031504     c16_MASs.obj
 0003:0000150c       $SG19655                   000000018003150c     c16_MASs.obj
 0003:00001510       $SG20572                   0000000180031510     c16_MASs.obj
 0003:00001524       $SG20574                   0000000180031524     c16_MASs.obj
 0003:0000152c       $SG20617                   000000018003152c     c16_MASs.obj
 0003:00001534       $SG19656                   0000000180031534     c16_MASs.obj
 0003:00001538       $SG20576                   0000000180031538     c16_MASs.obj
 0003:0000154c       $SG20577                   000000018003154c     c16_MASs.obj
 0003:00001554       $SG20627                   0000000180031554     c16_MASs.obj
 0003:0000155c       $SG19657                   000000018003155c     c16_MASs.obj
 0003:00001560       $SG20578                   0000000180031560     c16_MASs.obj
 0003:0000156c       $SG19658                   000000018003156c     c16_MASs.obj
 0003:00001570       $SG20580                   0000000180031570     c16_MASs.obj
 0003:0000157c       $SG20582                   000000018003157c     c16_MASs.obj
 0003:00001584       $SG20583                   0000000180031584     c16_MASs.obj
 0003:0000158c       $SG20584                   000000018003158c     c16_MASs.obj
 0003:00001594       $SG20585                   0000000180031594     c16_MASs.obj
 0003:0000159c       $SG20628                   000000018003159c     c16_MASs.obj
 0003:000015a4       $SG19659                   00000001800315a4     c16_MASs.obj
 0003:000015a8       $SG20586                   00000001800315a8     c16_MASs.obj
 0003:000015b4       $SG19660                   00000001800315b4     c16_MASs.obj
 0003:000015b8       $SG20587                   00000001800315b8     c16_MASs.obj
 0003:000015c4       $SG20591                   00000001800315c4     c16_MASs.obj
 0003:000015cc       $SG20593                   00000001800315cc     c16_MASs.obj
 0003:000015d4       $SG20594                   00000001800315d4     c16_MASs.obj
 0003:000015dc       $SG20633                   00000001800315dc     c16_MASs.obj
 0003:000015e4       $SG19661                   00000001800315e4     c16_MASs.obj
 0003:000015e8       $SG20597                   00000001800315e8     c16_MASs.obj
 0003:000015fc       $SG19662                   00000001800315fc     c16_MASs.obj
 0003:00001600       $SG20598                   0000000180031600     c16_MASs.obj
 0003:00001614       $SG20600                   0000000180031614     c16_MASs.obj
 0003:0000161c       $SG20715                   000000018003161c     c16_MASs.obj
 0003:00001620       $SG20602                   0000000180031620     c16_MASs.obj
 0003:00001634       $SG20603                   0000000180031634     c16_MASs.obj
 0003:0000163c       $SG20716                   000000018003163c     c16_MASs.obj
 0003:00001640       $SG20604                   0000000180031640     c16_MASs.obj
 0003:0000164c       $SG20607                   000000018003164c     c16_MASs.obj
 0003:00001654       $SG20609                   0000000180031654     c16_MASs.obj
 0003:0000165c       $SG20610                   000000018003165c     c16_MASs.obj
 0003:00001664       $SG20717                   0000000180031664     c16_MASs.obj
 0003:00001668       $SG20613                   0000000180031668     c16_MASs.obj
 0003:0000167c       $SG20718                   000000018003167c     c16_MASs.obj
 0003:00001680       $SG20614                   0000000180031680     c16_MASs.obj
 0003:00001694       $SG20616                   0000000180031694     c16_MASs.obj
 0003:0000169c       $SG20719                   000000018003169c     c16_MASs.obj
 0003:000016a0       $SG20618                   00000001800316a0     c16_MASs.obj
 0003:000016b4       $SG20619                   00000001800316b4     c16_MASs.obj
 0003:000016bc       $SG20720                   00000001800316bc     c16_MASs.obj
 0003:000016c0       $SG20620                   00000001800316c0     c16_MASs.obj
 0003:000016cc       $SG20623                   00000001800316cc     c16_MASs.obj
 0003:000016d4       $SG20625                   00000001800316d4     c16_MASs.obj
 0003:000016dc       $SG20626                   00000001800316dc     c16_MASs.obj
 0003:000016e4       $SG20721                   00000001800316e4     c16_MASs.obj
 0003:000016e8       $SG20629                   00000001800316e8     c16_MASs.obj
 0003:000016fc       $SG20722                   00000001800316fc     c16_MASs.obj
 0003:00001700       $SG20630                   0000000180031700     c16_MASs.obj
 0003:00001714       $SG20632                   0000000180031714     c16_MASs.obj
 0003:0000171c       $SG20723                   000000018003171c     c16_MASs.obj
 0003:00001720       $SG20634                   0000000180031720     c16_MASs.obj
 0003:00001734       $SG20635                   0000000180031734     c16_MASs.obj
 0003:0000173c       $SG20724                   000000018003173c     c16_MASs.obj
 0003:00001740       $SG20636                   0000000180031740     c16_MASs.obj
 0003:0000174c       $SG20725                   000000018003174c     c16_MASs.obj
 0003:00001750       $SG20637                   0000000180031750     c16_MASs.obj
 0003:00001758       $SG20640                   0000000180031758     c16_MASs.obj
 0003:00001768       $SG20649                   0000000180031768     c16_MASs.obj
 0003:00001778       $SG20650                   0000000180031778     c16_MASs.obj
 0003:00001788       $SG20651                   0000000180031788     c16_MASs.obj
 0003:00001798       $SG20652                   0000000180031798     c16_MASs.obj
 0003:000017a8       $SG20653                   00000001800317a8     c16_MASs.obj
 0003:000017c0       c16_debug_family_names     00000001800317c0     c16_MASs.obj
 0003:000018c8       $SG20654                   00000001800318c8     c16_MASs.obj
 0003:000018dc       $SG19880                   00000001800318dc     c16_MASs.obj
 0003:000018e0       $SG20655                   00000001800318e0     c16_MASs.obj
 0003:000018f8       $SG20656                   00000001800318f8     c16_MASs.obj
 0003:00001910       $SG20657                   0000000180031910     c16_MASs.obj
 0003:00001924       $SG19882                   0000000180031924     c16_MASs.obj
 0003:00001928       $SG20658                   0000000180031928     c16_MASs.obj
 0003:0000193c       $SG19638                   000000018003193c     c16_MASs.obj
 0003:00001944       $SG19884                   0000000180031944     c16_MASs.obj
 0003:00001948       $SG20663                   0000000180031948     c16_MASs.obj
 0003:00001958       $SG20665                   0000000180031958     c16_MASs.obj
 0003:00001960       $SG19644                   0000000180031960     c16_MASs.obj
 0003:00001968       $SG19651                   0000000180031968     c16_MASs.obj
 0003:00001970       $SG20677                   0000000180031970     c16_MASs.obj
 0003:00001994       $SG19886                   0000000180031994     c16_MASs.obj
 0003:00001998       $SG20678                   0000000180031998     c16_MASs.obj
 0003:000019bc       $SG19893                   00000001800319bc     c16_MASs.obj
 0003:000019c0       $SG20679                   00000001800319c0     c16_MASs.obj
 0003:000019dc       $SG19894                   00000001800319dc     c16_MASs.obj
 0003:000019e0       $SG20680                   00000001800319e0     c16_MASs.obj
 0003:000019fc       $SG19895                   00000001800319fc     c16_MASs.obj
 0003:00001a00       $SG20687                   0000000180031a00     c16_MASs.obj
 0003:00001a24       $SG19896                   0000000180031a24     c16_MASs.obj
 0003:00001a28       $SG20688                   0000000180031a28     c16_MASs.obj
 0003:00001a44       $SG19897                   0000000180031a44     c16_MASs.obj
 0003:00001a48       $SG20693                   0000000180031a48     c16_MASs.obj
 0003:00001a58       $SG20694                   0000000180031a58     c16_MASs.obj
 0003:00001a68       $SG20695                   0000000180031a68     c16_MASs.obj
 0003:00001a70       $SG20696                   0000000180031a70     c16_MASs.obj
 0003:00001a78       $SG20806                   0000000180031a78     c16_MASs.obj
 0003:00001a90       $SG20699                   0000000180031a90     c16_MASs.obj
 0003:00001b18       $SG20731                   0000000180031b18     c16_MASs.obj
 0003:00001b28       $SG20896                   0000000180031b28     c16_MASs.obj
 0003:00001b50       $SG20700                   0000000180031b50     c16_MASs.obj
 0003:00001bd8       $SG20919                   0000000180031bd8     c16_MASs.obj
 0003:00001be8       $SG20920                   0000000180031be8     c16_MASs.obj
 0003:00001bfc       $SG19898                   0000000180031bfc     c16_MASs.obj
 0003:00001c00       $SG19899                   0000000180031c00     c16_MASs.obj
 0003:00001c14       $SG20110                   0000000180031c14     c16_MASs.obj
 0003:00001c18       $SG19900                   0000000180031c18     c16_MASs.obj
 0003:00001c2c       $SG20211                   0000000180031c2c     c16_MASs.obj
 0003:00001c30       $SG20930                   0000000180031c30     c16_MASs.obj
 0003:00001c60       $SG20958                   0000000180031c60     c16_MASs.obj
 0003:00001cc0       $SG20154                   0000000180031cc0     c16_MASs.obj
 0003:00001cd0       ?c16_b_u@?1??c16_error@@9@9 0000000180031cd0     c16_MASs.obj
 0003:00001cf0       $SG20212                   0000000180031cf0     c16_MASs.obj
 0003:00001cf8       $SG20213                   0000000180031cf8     c16_MASs.obj
 0003:00001d00       ?c16_b_u@?1??c16_b_error@@9@9 0000000180031d00     c16_MASs.obj
 0003:00001d20       ?c16_c_u@?1??c16_b_error@@9@9 0000000180031d20     c16_MASs.obj
 0003:00001d24       $SG20243                   0000000180031d24     c16_MASs.obj
 0003:00001d28       $SG20245                   0000000180031d28     c16_MASs.obj
 0003:00001d2c       $SG20298                   0000000180031d2c     c16_MASs.obj
 0003:00001d30       $SG20246                   0000000180031d30     c16_MASs.obj
 0003:00001d38       $SG20247                   0000000180031d38     c16_MASs.obj
 0003:00001d40       ?c16_b_u@?1??c16_c_error@@9@9 0000000180031d40     c16_MASs.obj
 0003:00001d60       ?c16_c_u@?1??c16_c_error@@9@9 0000000180031d60     c16_MASs.obj
 0003:00001d68       $SG20300                   0000000180031d68     c16_MASs.obj
 0003:00001d6c       $SG20330                   0000000180031d6c     c16_MASs.obj
 0003:00001d70       $SG20301                   0000000180031d70     c16_MASs.obj
 0003:00001d78       $SG20302                   0000000180031d78     c16_MASs.obj
 0003:00001d80       $SG20427                   0000000180031d80     c16_MASs.obj
 0003:00001d8c       $SG20429                   0000000180031d8c     c16_MASs.obj
 0003:00001d98       $SG20428                   0000000180031d98     c16_MASs.obj
 0003:00001da4       $SG20430                   0000000180031da4     c16_MASs.obj
 0003:00001db0       $SG20431                   0000000180031db0     c16_MASs.obj
 0003:00001dc0       $SG20432                   0000000180031dc0     c16_MASs.obj
 0003:00001dd0       $SG20433                   0000000180031dd0     c16_MASs.obj
 0003:00001dd8       $SG20434                   0000000180031dd8     c16_MASs.obj
 0003:00001de0       $SG20435                   0000000180031de0     c16_MASs.obj
 0003:00001de8       $SG20436                   0000000180031de8     c16_MASs.obj
 0003:00001df0       $SG20437                   0000000180031df0     c16_MASs.obj
 0003:00001e00       $SG20438                   0000000180031e00     c16_MASs.obj
 0003:00001e10       $SG20441                   0000000180031e10     c16_MASs.obj
 0003:00001e28       $SG20442                   0000000180031e28     c16_MASs.obj
 0003:00001e34       $SG20444                   0000000180031e34     c16_MASs.obj
 0003:00001e3c       $SG20445                   0000000180031e3c     c16_MASs.obj
 0003:00001e44       $SG20446                   0000000180031e44     c16_MASs.obj
 0003:00001e4c       $SG20447                   0000000180031e4c     c16_MASs.obj
 0003:00001e58       $SG20448                   0000000180031e58     c16_MASs.obj
 0003:00001e68       $SG20449                   0000000180031e68     c16_MASs.obj
 0003:00001e74       $SG20453                   0000000180031e74     c16_MASs.obj
 0003:00001e7c       $SG20455                   0000000180031e7c     c16_MASs.obj
 0003:00001e84       $SG20456                   0000000180031e84     c16_MASs.obj
 0003:00001e8c       $SG20457                   0000000180031e8c     c16_MASs.obj
 0003:00001e94       $SG20458                   0000000180031e94     c16_MASs.obj
 0003:00001ea0       $SG20459                   0000000180031ea0     c16_MASs.obj
 0003:00001eb8       $SG20460                   0000000180031eb8     c16_MASs.obj
 0003:00001ecc       $SG20462                   0000000180031ecc     c16_MASs.obj
 0003:00001ed4       $SG20463                   0000000180031ed4     c16_MASs.obj
 0003:00001ee0       $SG20464                   0000000180031ee0     c16_MASs.obj
 0003:00001ef4       $SG20465                   0000000180031ef4     c16_MASs.obj
 0003:00001f00       $SG20466                   0000000180031f00     c16_MASs.obj
 0003:00001f0c       $SG20469                   0000000180031f0c     c16_MASs.obj
 0003:00001f14       $SG20471                   0000000180031f14     c16_MASs.obj
 0003:00001f1c       $SG20472                   0000000180031f1c     c16_MASs.obj
 0003:00001f24       $SG20473                   0000000180031f24     c16_MASs.obj
 0003:00001f2c       $SG20474                   0000000180031f2c     c16_MASs.obj
 0003:00001f38       $SG20475                   0000000180031f38     c16_MASs.obj
 0003:00001f50       $SG20476                   0000000180031f50     c16_MASs.obj
 0003:00001f64       $SG20478                   0000000180031f64     c16_MASs.obj
 0003:00001f6c       $SG20479                   0000000180031f6c     c16_MASs.obj
 0003:00001f80       $SG20480                   0000000180031f80     c23_MASs.obj
 0003:00001f94       $SG20481                   0000000180031f94     c23_MASs.obj
 0003:00001f9c       $SG20489                   0000000180031f9c     c23_MASs.obj
 0003:00001fa4       $SG20579                   0000000180031fa4     c23_MASs.obj
 0003:00001fac       $SG19630                   0000000180031fac     c23_MASs.obj
 0003:00001fb0       $SG20482                   0000000180031fb0     c23_MASs.obj
 0003:00001fbc       $SG20485                   0000000180031fbc     c23_MASs.obj
 0003:00001fc4       $SG20487                   0000000180031fc4     c23_MASs.obj
 0003:00001fcc       $SG20488                   0000000180031fcc     c23_MASs.obj
 0003:00001fd4       $SG20490                   0000000180031fd4     c23_MASs.obj
 0003:00001fdc       $SG20638                   0000000180031fdc     c23_MASs.obj
 0003:00001fe4       $SG19631                   0000000180031fe4     c23_MASs.obj
 0003:00001fe8       $SG20491                   0000000180031fe8     c23_MASs.obj
 0003:00001ffc       $SG20495                   0000000180031ffc     c23_MASs.obj
 0003:00002004       $SG19632                   0000000180032004     c23_MASs.obj
 0003:00002008       $SG20492                   0000000180032008     c23_MASs.obj
 0003:0000201c       $SG20494                   000000018003201c     c23_MASs.obj
 0003:00002024       $SG20505                   0000000180032024     c23_MASs.obj
 0003:0000202c       $SG19633                   000000018003202c     c23_MASs.obj
 0003:00002030       $SG20496                   0000000180032030     c23_MASs.obj
 0003:00002044       $SG20497                   0000000180032044     c23_MASs.obj
 0003:0000204c       $SG20506                   000000018003204c     c23_MASs.obj
 0003:00002054       $SG19634                   0000000180032054     c23_MASs.obj
 0003:00002058       $SG20498                   0000000180032058     c23_MASs.obj
 0003:00002064       $SG20501                   0000000180032064     c23_MASs.obj
 0003:0000206c       $SG20503                   000000018003206c     c23_MASs.obj
 0003:00002074       $SG20504                   0000000180032074     c23_MASs.obj
 0003:0000207c       $SG20511                   000000018003207c     c23_MASs.obj
 0003:00002084       $SG19635                   0000000180032084     c23_MASs.obj
 0003:00002088       $SG20507                   0000000180032088     c23_MASs.obj
 0003:0000209c       $SG20521                   000000018003209c     c23_MASs.obj
 0003:000020a4       $SG19636                   00000001800320a4     c23_MASs.obj
 0003:000020a8       $SG20508                   00000001800320a8     c23_MASs.obj
 0003:000020bc       $SG20510                   00000001800320bc     c23_MASs.obj
 0003:000020c4       $SG20522                   00000001800320c4     c23_MASs.obj
 0003:000020cc       $SG20661                   00000001800320cc     c23_MASs.obj
 0003:000020d0       $SG20512                   00000001800320d0     c23_MASs.obj
 0003:000020e4       $SG20513                   00000001800320e4     c23_MASs.obj
 0003:000020ec       $SG20527                   00000001800320ec     c23_MASs.obj
 0003:000020f4       $SG19637                   00000001800320f4     c23_MASs.obj
 0003:000020f8       $SG20514                   00000001800320f8     c23_MASs.obj
 0003:00002104       $SG20517                   0000000180032104     c23_MASs.obj
 0003:0000210c       $SG20519                   000000018003210c     c23_MASs.obj
 0003:00002114       $SG20520                   0000000180032114     c23_MASs.obj
 0003:0000211c       $SG20537                   000000018003211c     c23_MASs.obj
 0003:00002124       $SG19639                   0000000180032124     c23_MASs.obj
 0003:00002128       $SG20523                   0000000180032128     c23_MASs.obj
 0003:0000213c       $SG20538                   000000018003213c     c23_MASs.obj
 0003:00002144       $SG19640                   0000000180032144     c23_MASs.obj
 0003:00002148       $SG20524                   0000000180032148     c23_MASs.obj
 0003:0000215c       $SG20526                   000000018003215c     c23_MASs.obj
 0003:00002164       $SG20543                   0000000180032164     c23_MASs.obj
 0003:0000216c       $SG19641                   000000018003216c     c23_MASs.obj
 0003:00002170       $SG20528                   0000000180032170     c23_MASs.obj
 0003:00002184       $SG20529                   0000000180032184     c23_MASs.obj
 0003:0000218c       $SG20553                   000000018003218c     c23_MASs.obj
 0003:00002194       $SG19642                   0000000180032194     c23_MASs.obj
 0003:00002198       $SG20530                   0000000180032198     c23_MASs.obj
 0003:000021a4       $SG20533                   00000001800321a4     c23_MASs.obj
 0003:000021ac       $SG20535                   00000001800321ac     c23_MASs.obj
 0003:000021b4       $SG20536                   00000001800321b4     c23_MASs.obj
 0003:000021bc       $SG20554                   00000001800321bc     c23_MASs.obj
 0003:000021c4       $SG19643                   00000001800321c4     c23_MASs.obj
 0003:000021c8       $SG20539                   00000001800321c8     c23_MASs.obj
 0003:000021dc       $SG20559                   00000001800321dc     c23_MASs.obj
 0003:000021e4       $SG19645                   00000001800321e4     c23_MASs.obj
 0003:000021e8       $SG20540                   00000001800321e8     c23_MASs.obj
 0003:000021fc       $SG20542                   00000001800321fc     c23_MASs.obj
 0003:00002204       $SG20569                   0000000180032204     c23_MASs.obj
 0003:0000220c       $SG19646                   000000018003220c     c23_MASs.obj
 0003:00002210       $SG20544                   0000000180032210     c23_MASs.obj
 0003:00002224       $SG20545                   0000000180032224     c23_MASs.obj
 0003:0000222c       $SG20570                   000000018003222c     c23_MASs.obj
 0003:00002234       $SG19647                   0000000180032234     c23_MASs.obj
 0003:00002238       $SG20546                   0000000180032238     c23_MASs.obj
 0003:00002244       $SG20549                   0000000180032244     c23_MASs.obj
 0003:0000224c       $SG20551                   000000018003224c     c23_MASs.obj
 0003:00002254       $SG20552                   0000000180032254     c23_MASs.obj
 0003:0000225c       $SG20575                   000000018003225c     c23_MASs.obj
 0003:00002264       $SG19648                   0000000180032264     c23_MASs.obj
 0003:00002268       $SG20555                   0000000180032268     c23_MASs.obj
 0003:0000227c       $SG20595                   000000018003227c     c23_MASs.obj
 0003:00002284       $SG19649                   0000000180032284     c23_MASs.obj
 0003:00002288       $SG20556                   0000000180032288     c23_MASs.obj
 0003:0000229c       $SG20558                   000000018003229c     c23_MASs.obj
 0003:000022a4       $SG20596                   00000001800322a4     c23_MASs.obj
 0003:000022ac       $SG19650                   00000001800322ac     c23_MASs.obj
 0003:000022b4       $SG19652                   00000001800322b4     c23_MASs.obj
 0003:000022b8       $SG20560                   00000001800322b8     c23_MASs.obj
 0003:000022cc       $SG20561                   00000001800322cc     c23_MASs.obj
 0003:000022d4       $SG20601                   00000001800322d4     c23_MASs.obj
 0003:000022dc       $SG19653                   00000001800322dc     c23_MASs.obj
 0003:000022e0       $SG20562                   00000001800322e0     c23_MASs.obj
 0003:000022ec       $SG20565                   00000001800322ec     c23_MASs.obj
 0003:000022f4       $SG20567                   00000001800322f4     c23_MASs.obj
 0003:000022fc       $SG20568                   00000001800322fc     c23_MASs.obj
 0003:00002304       $SG20611                   0000000180032304     c23_MASs.obj
 0003:0000230c       $SG19654                   000000018003230c     c23_MASs.obj
 0003:00002310       $SG20571                   0000000180032310     c23_MASs.obj
 0003:00002324       $SG20612                   0000000180032324     c23_MASs.obj
 0003:0000232c       $SG19655                   000000018003232c     c23_MASs.obj
 0003:00002330       $SG20572                   0000000180032330     c23_MASs.obj
 0003:00002344       $SG20574                   0000000180032344     c23_MASs.obj
 0003:0000234c       $SG20617                   000000018003234c     c23_MASs.obj
 0003:00002354       $SG19656                   0000000180032354     c23_MASs.obj
 0003:00002358       $SG20576                   0000000180032358     c23_MASs.obj
 0003:0000236c       $SG20577                   000000018003236c     c23_MASs.obj
 0003:00002374       $SG20627                   0000000180032374     c23_MASs.obj
 0003:0000237c       $SG19657                   000000018003237c     c23_MASs.obj
 0003:00002380       $SG20578                   0000000180032380     c23_MASs.obj
 0003:0000238c       $SG19658                   000000018003238c     c23_MASs.obj
 0003:00002390       $SG20580                   0000000180032390     c23_MASs.obj
 0003:0000239c       $SG20582                   000000018003239c     c23_MASs.obj
 0003:000023a4       $SG20583                   00000001800323a4     c23_MASs.obj
 0003:000023ac       $SG20584                   00000001800323ac     c23_MASs.obj
 0003:000023b4       $SG20585                   00000001800323b4     c23_MASs.obj
 0003:000023bc       $SG20628                   00000001800323bc     c23_MASs.obj
 0003:000023c4       $SG19659                   00000001800323c4     c23_MASs.obj
 0003:000023c8       $SG20586                   00000001800323c8     c23_MASs.obj
 0003:000023d4       $SG19660                   00000001800323d4     c23_MASs.obj
 0003:000023d8       $SG20587                   00000001800323d8     c23_MASs.obj
 0003:000023e4       $SG20591                   00000001800323e4     c23_MASs.obj
 0003:000023ec       $SG20593                   00000001800323ec     c23_MASs.obj
 0003:000023f4       $SG20594                   00000001800323f4     c23_MASs.obj
 0003:000023fc       $SG20633                   00000001800323fc     c23_MASs.obj
 0003:00002404       $SG19661                   0000000180032404     c23_MASs.obj
 0003:00002408       $SG20597                   0000000180032408     c23_MASs.obj
 0003:0000241c       $SG19662                   000000018003241c     c23_MASs.obj
 0003:00002420       $SG20598                   0000000180032420     c23_MASs.obj
 0003:00002434       $SG20600                   0000000180032434     c23_MASs.obj
 0003:0000243c       $SG20715                   000000018003243c     c23_MASs.obj
 0003:00002440       $SG20602                   0000000180032440     c23_MASs.obj
 0003:00002454       $SG20603                   0000000180032454     c23_MASs.obj
 0003:0000245c       $SG20716                   000000018003245c     c23_MASs.obj
 0003:00002460       $SG20604                   0000000180032460     c23_MASs.obj
 0003:0000246c       $SG20607                   000000018003246c     c23_MASs.obj
 0003:00002474       $SG20609                   0000000180032474     c23_MASs.obj
 0003:0000247c       $SG20610                   000000018003247c     c23_MASs.obj
 0003:00002484       $SG20717                   0000000180032484     c23_MASs.obj
 0003:00002488       $SG20613                   0000000180032488     c23_MASs.obj
 0003:0000249c       $SG20718                   000000018003249c     c23_MASs.obj
 0003:000024a0       $SG20614                   00000001800324a0     c23_MASs.obj
 0003:000024b4       $SG20616                   00000001800324b4     c23_MASs.obj
 0003:000024bc       $SG20719                   00000001800324bc     c23_MASs.obj
 0003:000024c0       $SG20618                   00000001800324c0     c23_MASs.obj
 0003:000024d4       $SG20619                   00000001800324d4     c23_MASs.obj
 0003:000024dc       $SG20720                   00000001800324dc     c23_MASs.obj
 0003:000024e0       $SG20620                   00000001800324e0     c23_MASs.obj
 0003:000024ec       $SG20623                   00000001800324ec     c23_MASs.obj
 0003:000024f4       $SG20625                   00000001800324f4     c23_MASs.obj
 0003:000024fc       $SG20626                   00000001800324fc     c23_MASs.obj
 0003:00002504       $SG20721                   0000000180032504     c23_MASs.obj
 0003:00002508       $SG20629                   0000000180032508     c23_MASs.obj
 0003:0000251c       $SG20722                   000000018003251c     c23_MASs.obj
 0003:00002520       $SG20630                   0000000180032520     c23_MASs.obj
 0003:00002534       $SG20632                   0000000180032534     c23_MASs.obj
 0003:0000253c       $SG20723                   000000018003253c     c23_MASs.obj
 0003:00002540       $SG20634                   0000000180032540     c23_MASs.obj
 0003:00002554       $SG20635                   0000000180032554     c23_MASs.obj
 0003:0000255c       $SG20724                   000000018003255c     c23_MASs.obj
 0003:00002560       $SG20636                   0000000180032560     c23_MASs.obj
 0003:0000256c       $SG20725                   000000018003256c     c23_MASs.obj
 0003:00002570       $SG20637                   0000000180032570     c23_MASs.obj
 0003:00002578       $SG20640                   0000000180032578     c23_MASs.obj
 0003:00002588       $SG20649                   0000000180032588     c23_MASs.obj
 0003:00002598       $SG20650                   0000000180032598     c23_MASs.obj
 0003:000025a8       $SG20651                   00000001800325a8     c23_MASs.obj
 0003:000025b8       $SG20652                   00000001800325b8     c23_MASs.obj
 0003:000025c8       $SG20653                   00000001800325c8     c23_MASs.obj
 0003:000025e0       c23_debug_family_names     00000001800325e0     c23_MASs.obj
 0003:000026e8       $SG20654                   00000001800326e8     c23_MASs.obj
 0003:000026fc       $SG19880                   00000001800326fc     c23_MASs.obj
 0003:00002700       $SG20655                   0000000180032700     c23_MASs.obj
 0003:00002718       $SG20656                   0000000180032718     c23_MASs.obj
 0003:00002730       $SG20657                   0000000180032730     c23_MASs.obj
 0003:00002744       $SG19882                   0000000180032744     c23_MASs.obj
 0003:00002748       $SG20658                   0000000180032748     c23_MASs.obj
 0003:0000275c       $SG19638                   000000018003275c     c23_MASs.obj
 0003:00002764       $SG19884                   0000000180032764     c23_MASs.obj
 0003:00002768       $SG20663                   0000000180032768     c23_MASs.obj
 0003:00002778       $SG20665                   0000000180032778     c23_MASs.obj
 0003:00002780       $SG19644                   0000000180032780     c23_MASs.obj
 0003:00002788       $SG19651                   0000000180032788     c23_MASs.obj
 0003:00002790       $SG20677                   0000000180032790     c23_MASs.obj
 0003:000027b4       $SG19886                   00000001800327b4     c23_MASs.obj
 0003:000027b8       $SG20678                   00000001800327b8     c23_MASs.obj
 0003:000027dc       $SG19893                   00000001800327dc     c23_MASs.obj
 0003:000027e0       $SG20679                   00000001800327e0     c23_MASs.obj
 0003:000027fc       $SG19894                   00000001800327fc     c23_MASs.obj
 0003:00002800       $SG20680                   0000000180032800     c23_MASs.obj
 0003:0000281c       $SG19895                   000000018003281c     c23_MASs.obj
 0003:00002820       $SG20687                   0000000180032820     c23_MASs.obj
 0003:00002844       $SG19896                   0000000180032844     c23_MASs.obj
 0003:00002848       $SG20688                   0000000180032848     c23_MASs.obj
 0003:00002864       $SG19897                   0000000180032864     c23_MASs.obj
 0003:00002868       $SG20693                   0000000180032868     c23_MASs.obj
 0003:00002878       $SG20694                   0000000180032878     c23_MASs.obj
 0003:00002888       $SG20695                   0000000180032888     c23_MASs.obj
 0003:00002890       $SG20696                   0000000180032890     c23_MASs.obj
 0003:00002898       $SG20806                   0000000180032898     c23_MASs.obj
 0003:000028b0       $SG20699                   00000001800328b0     c23_MASs.obj
 0003:00002938       $SG20731                   0000000180032938     c23_MASs.obj
 0003:00002948       $SG20896                   0000000180032948     c23_MASs.obj
 0003:00002970       $SG20700                   0000000180032970     c23_MASs.obj
 0003:000029f8       $SG20919                   00000001800329f8     c23_MASs.obj
 0003:00002a08       $SG20920                   0000000180032a08     c23_MASs.obj
 0003:00002a1c       $SG19898                   0000000180032a1c     c23_MASs.obj
 0003:00002a20       $SG19899                   0000000180032a20     c23_MASs.obj
 0003:00002a34       $SG20110                   0000000180032a34     c23_MASs.obj
 0003:00002a38       $SG19900                   0000000180032a38     c23_MASs.obj
 0003:00002a4c       $SG20211                   0000000180032a4c     c23_MASs.obj
 0003:00002a50       $SG20930                   0000000180032a50     c23_MASs.obj
 0003:00002a80       $SG20958                   0000000180032a80     c23_MASs.obj
 0003:00002ae0       $SG20154                   0000000180032ae0     c23_MASs.obj
 0003:00002af0       ?c23_b_u@?1??c23_error@@9@9 0000000180032af0     c23_MASs.obj
 0003:00002b10       $SG20212                   0000000180032b10     c23_MASs.obj
 0003:00002b18       $SG20213                   0000000180032b18     c23_MASs.obj
 0003:00002b20       ?c23_b_u@?1??c23_b_error@@9@9 0000000180032b20     c23_MASs.obj
 0003:00002b40       ?c23_c_u@?1??c23_b_error@@9@9 0000000180032b40     c23_MASs.obj
 0003:00002b44       $SG20243                   0000000180032b44     c23_MASs.obj
 0003:00002b48       $SG20245                   0000000180032b48     c23_MASs.obj
 0003:00002b4c       $SG20298                   0000000180032b4c     c23_MASs.obj
 0003:00002b50       $SG20246                   0000000180032b50     c23_MASs.obj
 0003:00002b58       $SG20247                   0000000180032b58     c23_MASs.obj
 0003:00002b60       ?c23_b_u@?1??c23_c_error@@9@9 0000000180032b60     c23_MASs.obj
 0003:00002b80       ?c23_c_u@?1??c23_c_error@@9@9 0000000180032b80     c23_MASs.obj
 0003:00002b88       $SG20300                   0000000180032b88     c23_MASs.obj
 0003:00002b8c       $SG20330                   0000000180032b8c     c23_MASs.obj
 0003:00002b90       $SG20301                   0000000180032b90     c23_MASs.obj
 0003:00002b98       $SG20302                   0000000180032b98     c23_MASs.obj
 0003:00002ba0       $SG20427                   0000000180032ba0     c23_MASs.obj
 0003:00002bac       $SG20429                   0000000180032bac     c23_MASs.obj
 0003:00002bb8       $SG20428                   0000000180032bb8     c23_MASs.obj
 0003:00002bc4       $SG20430                   0000000180032bc4     c23_MASs.obj
 0003:00002bd0       $SG20431                   0000000180032bd0     c23_MASs.obj
 0003:00002be0       $SG20432                   0000000180032be0     c23_MASs.obj
 0003:00002bf0       $SG20433                   0000000180032bf0     c23_MASs.obj
 0003:00002bf8       $SG20434                   0000000180032bf8     c23_MASs.obj
 0003:00002c00       $SG20435                   0000000180032c00     c23_MASs.obj
 0003:00002c08       $SG20436                   0000000180032c08     c23_MASs.obj
 0003:00002c10       $SG20437                   0000000180032c10     c23_MASs.obj
 0003:00002c20       $SG20438                   0000000180032c20     c23_MASs.obj
 0003:00002c30       $SG20441                   0000000180032c30     c23_MASs.obj
 0003:00002c48       $SG20442                   0000000180032c48     c23_MASs.obj
 0003:00002c54       $SG20444                   0000000180032c54     c23_MASs.obj
 0003:00002c5c       $SG20445                   0000000180032c5c     c23_MASs.obj
 0003:00002c64       $SG20446                   0000000180032c64     c23_MASs.obj
 0003:00002c6c       $SG20447                   0000000180032c6c     c23_MASs.obj
 0003:00002c78       $SG20448                   0000000180032c78     c23_MASs.obj
 0003:00002c88       $SG20449                   0000000180032c88     c23_MASs.obj
 0003:00002c94       $SG20453                   0000000180032c94     c23_MASs.obj
 0003:00002c9c       $SG20455                   0000000180032c9c     c23_MASs.obj
 0003:00002ca4       $SG20456                   0000000180032ca4     c23_MASs.obj
 0003:00002cac       $SG20457                   0000000180032cac     c23_MASs.obj
 0003:00002cb4       $SG20458                   0000000180032cb4     c23_MASs.obj
 0003:00002cc0       $SG20459                   0000000180032cc0     c23_MASs.obj
 0003:00002cd8       $SG20460                   0000000180032cd8     c23_MASs.obj
 0003:00002cec       $SG20462                   0000000180032cec     c23_MASs.obj
 0003:00002cf4       $SG20463                   0000000180032cf4     c23_MASs.obj
 0003:00002d00       $SG20464                   0000000180032d00     c23_MASs.obj
 0003:00002d14       $SG20465                   0000000180032d14     c23_MASs.obj
 0003:00002d20       $SG20466                   0000000180032d20     c23_MASs.obj
 0003:00002d2c       $SG20469                   0000000180032d2c     c23_MASs.obj
 0003:00002d34       $SG20471                   0000000180032d34     c23_MASs.obj
 0003:00002d3c       $SG20472                   0000000180032d3c     c23_MASs.obj
 0003:00002d44       $SG20473                   0000000180032d44     c23_MASs.obj
 0003:00002d4c       $SG20474                   0000000180032d4c     c23_MASs.obj
 0003:00002d58       $SG20475                   0000000180032d58     c23_MASs.obj
 0003:00002d70       $SG20476                   0000000180032d70     c23_MASs.obj
 0003:00002d84       $SG20478                   0000000180032d84     c23_MASs.obj
 0003:00002d8c       $SG20479                   0000000180032d8c     c23_MASs.obj
 0003:00002da0       $SG20480                   0000000180032da0     c30_MASs.obj
 0003:00002db4       $SG20481                   0000000180032db4     c30_MASs.obj
 0003:00002dbc       $SG20489                   0000000180032dbc     c30_MASs.obj
 0003:00002dc4       $SG20579                   0000000180032dc4     c30_MASs.obj
 0003:00002dcc       $SG19630                   0000000180032dcc     c30_MASs.obj
 0003:00002dd0       $SG20482                   0000000180032dd0     c30_MASs.obj
 0003:00002ddc       $SG20485                   0000000180032ddc     c30_MASs.obj
 0003:00002de4       $SG20487                   0000000180032de4     c30_MASs.obj
 0003:00002dec       $SG20488                   0000000180032dec     c30_MASs.obj
 0003:00002df4       $SG20490                   0000000180032df4     c30_MASs.obj
 0003:00002dfc       $SG20638                   0000000180032dfc     c30_MASs.obj
 0003:00002e04       $SG19631                   0000000180032e04     c30_MASs.obj
 0003:00002e08       $SG20491                   0000000180032e08     c30_MASs.obj
 0003:00002e1c       $SG20495                   0000000180032e1c     c30_MASs.obj
 0003:00002e24       $SG19632                   0000000180032e24     c30_MASs.obj
 0003:00002e28       $SG20492                   0000000180032e28     c30_MASs.obj
 0003:00002e3c       $SG20494                   0000000180032e3c     c30_MASs.obj
 0003:00002e44       $SG20505                   0000000180032e44     c30_MASs.obj
 0003:00002e4c       $SG19633                   0000000180032e4c     c30_MASs.obj
 0003:00002e50       $SG20496                   0000000180032e50     c30_MASs.obj
 0003:00002e64       $SG20497                   0000000180032e64     c30_MASs.obj
 0003:00002e6c       $SG20506                   0000000180032e6c     c30_MASs.obj
 0003:00002e74       $SG19634                   0000000180032e74     c30_MASs.obj
 0003:00002e78       $SG20498                   0000000180032e78     c30_MASs.obj
 0003:00002e84       $SG20501                   0000000180032e84     c30_MASs.obj
 0003:00002e8c       $SG20503                   0000000180032e8c     c30_MASs.obj
 0003:00002e94       $SG20504                   0000000180032e94     c30_MASs.obj
 0003:00002e9c       $SG20511                   0000000180032e9c     c30_MASs.obj
 0003:00002ea4       $SG19635                   0000000180032ea4     c30_MASs.obj
 0003:00002ea8       $SG20507                   0000000180032ea8     c30_MASs.obj
 0003:00002ebc       $SG20521                   0000000180032ebc     c30_MASs.obj
 0003:00002ec4       $SG19636                   0000000180032ec4     c30_MASs.obj
 0003:00002ec8       $SG20508                   0000000180032ec8     c30_MASs.obj
 0003:00002edc       $SG20510                   0000000180032edc     c30_MASs.obj
 0003:00002ee4       $SG20522                   0000000180032ee4     c30_MASs.obj
 0003:00002eec       $SG20661                   0000000180032eec     c30_MASs.obj
 0003:00002ef0       $SG20512                   0000000180032ef0     c30_MASs.obj
 0003:00002f04       $SG20513                   0000000180032f04     c30_MASs.obj
 0003:00002f0c       $SG20527                   0000000180032f0c     c30_MASs.obj
 0003:00002f14       $SG19637                   0000000180032f14     c30_MASs.obj
 0003:00002f18       $SG20514                   0000000180032f18     c30_MASs.obj
 0003:00002f24       $SG20517                   0000000180032f24     c30_MASs.obj
 0003:00002f2c       $SG20519                   0000000180032f2c     c30_MASs.obj
 0003:00002f34       $SG20520                   0000000180032f34     c30_MASs.obj
 0003:00002f3c       $SG20537                   0000000180032f3c     c30_MASs.obj
 0003:00002f44       $SG19639                   0000000180032f44     c30_MASs.obj
 0003:00002f48       $SG20523                   0000000180032f48     c30_MASs.obj
 0003:00002f5c       $SG20538                   0000000180032f5c     c30_MASs.obj
 0003:00002f64       $SG19640                   0000000180032f64     c30_MASs.obj
 0003:00002f68       $SG20524                   0000000180032f68     c30_MASs.obj
 0003:00002f7c       $SG20526                   0000000180032f7c     c30_MASs.obj
 0003:00002f84       $SG20543                   0000000180032f84     c30_MASs.obj
 0003:00002f8c       $SG19641                   0000000180032f8c     c30_MASs.obj
 0003:00002f90       $SG20528                   0000000180032f90     c30_MASs.obj
 0003:00002fa4       $SG20529                   0000000180032fa4     c30_MASs.obj
 0003:00002fac       $SG20553                   0000000180032fac     c30_MASs.obj
 0003:00002fb4       $SG19642                   0000000180032fb4     c30_MASs.obj
 0003:00002fb8       $SG20530                   0000000180032fb8     c30_MASs.obj
 0003:00002fc4       $SG20533                   0000000180032fc4     c30_MASs.obj
 0003:00002fcc       $SG20535                   0000000180032fcc     c30_MASs.obj
 0003:00002fd4       $SG20536                   0000000180032fd4     c30_MASs.obj
 0003:00002fdc       $SG20554                   0000000180032fdc     c30_MASs.obj
 0003:00002fe4       $SG19643                   0000000180032fe4     c30_MASs.obj
 0003:00002fe8       $SG20539                   0000000180032fe8     c30_MASs.obj
 0003:00002ffc       $SG20559                   0000000180032ffc     c30_MASs.obj
 0003:00003004       $SG19645                   0000000180033004     c30_MASs.obj
 0003:00003008       $SG20540                   0000000180033008     c30_MASs.obj
 0003:0000301c       $SG20542                   000000018003301c     c30_MASs.obj
 0003:00003024       $SG20569                   0000000180033024     c30_MASs.obj
 0003:0000302c       $SG19646                   000000018003302c     c30_MASs.obj
 0003:00003030       $SG20544                   0000000180033030     c30_MASs.obj
 0003:00003044       $SG20545                   0000000180033044     c30_MASs.obj
 0003:0000304c       $SG20570                   000000018003304c     c30_MASs.obj
 0003:00003054       $SG19647                   0000000180033054     c30_MASs.obj
 0003:00003058       $SG20546                   0000000180033058     c30_MASs.obj
 0003:00003064       $SG20549                   0000000180033064     c30_MASs.obj
 0003:0000306c       $SG20551                   000000018003306c     c30_MASs.obj
 0003:00003074       $SG20552                   0000000180033074     c30_MASs.obj
 0003:0000307c       $SG20575                   000000018003307c     c30_MASs.obj
 0003:00003084       $SG19648                   0000000180033084     c30_MASs.obj
 0003:00003088       $SG20555                   0000000180033088     c30_MASs.obj
 0003:0000309c       $SG20595                   000000018003309c     c30_MASs.obj
 0003:000030a4       $SG19649                   00000001800330a4     c30_MASs.obj
 0003:000030a8       $SG20556                   00000001800330a8     c30_MASs.obj
 0003:000030bc       $SG20558                   00000001800330bc     c30_MASs.obj
 0003:000030c4       $SG20596                   00000001800330c4     c30_MASs.obj
 0003:000030cc       $SG19650                   00000001800330cc     c30_MASs.obj
 0003:000030d4       $SG19652                   00000001800330d4     c30_MASs.obj
 0003:000030d8       $SG20560                   00000001800330d8     c30_MASs.obj
 0003:000030ec       $SG20561                   00000001800330ec     c30_MASs.obj
 0003:000030f4       $SG20601                   00000001800330f4     c30_MASs.obj
 0003:000030fc       $SG19653                   00000001800330fc     c30_MASs.obj
 0003:00003100       $SG20562                   0000000180033100     c30_MASs.obj
 0003:0000310c       $SG20565                   000000018003310c     c30_MASs.obj
 0003:00003114       $SG20567                   0000000180033114     c30_MASs.obj
 0003:0000311c       $SG20568                   000000018003311c     c30_MASs.obj
 0003:00003124       $SG20611                   0000000180033124     c30_MASs.obj
 0003:0000312c       $SG19654                   000000018003312c     c30_MASs.obj
 0003:00003130       $SG20571                   0000000180033130     c30_MASs.obj
 0003:00003144       $SG20612                   0000000180033144     c30_MASs.obj
 0003:0000314c       $SG19655                   000000018003314c     c30_MASs.obj
 0003:00003150       $SG20572                   0000000180033150     c30_MASs.obj
 0003:00003164       $SG20574                   0000000180033164     c30_MASs.obj
 0003:0000316c       $SG20617                   000000018003316c     c30_MASs.obj
 0003:00003174       $SG19656                   0000000180033174     c30_MASs.obj
 0003:00003178       $SG20576                   0000000180033178     c30_MASs.obj
 0003:0000318c       $SG20577                   000000018003318c     c30_MASs.obj
 0003:00003194       $SG20627                   0000000180033194     c30_MASs.obj
 0003:0000319c       $SG19657                   000000018003319c     c30_MASs.obj
 0003:000031a0       $SG20578                   00000001800331a0     c30_MASs.obj
 0003:000031ac       $SG19658                   00000001800331ac     c30_MASs.obj
 0003:000031b0       $SG20580                   00000001800331b0     c30_MASs.obj
 0003:000031bc       $SG20582                   00000001800331bc     c30_MASs.obj
 0003:000031c4       $SG20583                   00000001800331c4     c30_MASs.obj
 0003:000031cc       $SG20584                   00000001800331cc     c30_MASs.obj
 0003:000031d4       $SG20585                   00000001800331d4     c30_MASs.obj
 0003:000031dc       $SG20628                   00000001800331dc     c30_MASs.obj
 0003:000031e4       $SG19659                   00000001800331e4     c30_MASs.obj
 0003:000031e8       $SG20586                   00000001800331e8     c30_MASs.obj
 0003:000031f4       $SG19660                   00000001800331f4     c30_MASs.obj
 0003:000031f8       $SG20587                   00000001800331f8     c30_MASs.obj
 0003:00003204       $SG20591                   0000000180033204     c30_MASs.obj
 0003:0000320c       $SG20593                   000000018003320c     c30_MASs.obj
 0003:00003214       $SG20594                   0000000180033214     c30_MASs.obj
 0003:0000321c       $SG20633                   000000018003321c     c30_MASs.obj
 0003:00003224       $SG19661                   0000000180033224     c30_MASs.obj
 0003:00003228       $SG20597                   0000000180033228     c30_MASs.obj
 0003:0000323c       $SG19662                   000000018003323c     c30_MASs.obj
 0003:00003240       $SG20598                   0000000180033240     c30_MASs.obj
 0003:00003254       $SG20600                   0000000180033254     c30_MASs.obj
 0003:0000325c       $SG20715                   000000018003325c     c30_MASs.obj
 0003:00003260       $SG20602                   0000000180033260     c30_MASs.obj
 0003:00003274       $SG20603                   0000000180033274     c30_MASs.obj
 0003:0000327c       $SG20716                   000000018003327c     c30_MASs.obj
 0003:00003280       $SG20604                   0000000180033280     c30_MASs.obj
 0003:0000328c       $SG20607                   000000018003328c     c30_MASs.obj
 0003:00003294       $SG20609                   0000000180033294     c30_MASs.obj
 0003:0000329c       $SG20610                   000000018003329c     c30_MASs.obj
 0003:000032a4       $SG20717                   00000001800332a4     c30_MASs.obj
 0003:000032a8       $SG20613                   00000001800332a8     c30_MASs.obj
 0003:000032bc       $SG20718                   00000001800332bc     c30_MASs.obj
 0003:000032c0       $SG20614                   00000001800332c0     c30_MASs.obj
 0003:000032d4       $SG20616                   00000001800332d4     c30_MASs.obj
 0003:000032dc       $SG20719                   00000001800332dc     c30_MASs.obj
 0003:000032e0       $SG20618                   00000001800332e0     c30_MASs.obj
 0003:000032f4       $SG20619                   00000001800332f4     c30_MASs.obj
 0003:000032fc       $SG20720                   00000001800332fc     c30_MASs.obj
 0003:00003300       $SG20620                   0000000180033300     c30_MASs.obj
 0003:0000330c       $SG20623                   000000018003330c     c30_MASs.obj
 0003:00003314       $SG20625                   0000000180033314     c30_MASs.obj
 0003:0000331c       $SG20626                   000000018003331c     c30_MASs.obj
 0003:00003324       $SG20721                   0000000180033324     c30_MASs.obj
 0003:00003328       $SG20629                   0000000180033328     c30_MASs.obj
 0003:0000333c       $SG20722                   000000018003333c     c30_MASs.obj
 0003:00003340       $SG20630                   0000000180033340     c30_MASs.obj
 0003:00003354       $SG20632                   0000000180033354     c30_MASs.obj
 0003:0000335c       $SG20723                   000000018003335c     c30_MASs.obj
 0003:00003360       $SG20634                   0000000180033360     c30_MASs.obj
 0003:00003374       $SG20635                   0000000180033374     c30_MASs.obj
 0003:0000337c       $SG20724                   000000018003337c     c30_MASs.obj
 0003:00003380       $SG20636                   0000000180033380     c30_MASs.obj
 0003:0000338c       $SG20725                   000000018003338c     c30_MASs.obj
 0003:00003390       $SG20637                   0000000180033390     c30_MASs.obj
 0003:00003398       $SG20640                   0000000180033398     c30_MASs.obj
 0003:000033a8       $SG20649                   00000001800333a8     c30_MASs.obj
 0003:000033b8       $SG20650                   00000001800333b8     c30_MASs.obj
 0003:000033c8       $SG20651                   00000001800333c8     c30_MASs.obj
 0003:000033d8       $SG20652                   00000001800333d8     c30_MASs.obj
 0003:000033e8       $SG20653                   00000001800333e8     c30_MASs.obj
 0003:00003400       c30_debug_family_names     0000000180033400     c30_MASs.obj
 0003:00003508       $SG20654                   0000000180033508     c30_MASs.obj
 0003:0000351c       $SG19880                   000000018003351c     c30_MASs.obj
 0003:00003520       $SG20655                   0000000180033520     c30_MASs.obj
 0003:00003538       $SG20656                   0000000180033538     c30_MASs.obj
 0003:00003550       $SG20657                   0000000180033550     c30_MASs.obj
 0003:00003564       $SG19882                   0000000180033564     c30_MASs.obj
 0003:00003568       $SG20658                   0000000180033568     c30_MASs.obj
 0003:0000357c       $SG19638                   000000018003357c     c30_MASs.obj
 0003:00003584       $SG19884                   0000000180033584     c30_MASs.obj
 0003:00003588       $SG20663                   0000000180033588     c30_MASs.obj
 0003:00003598       $SG20665                   0000000180033598     c30_MASs.obj
 0003:000035a0       $SG19644                   00000001800335a0     c30_MASs.obj
 0003:000035a8       $SG19651                   00000001800335a8     c30_MASs.obj
 0003:000035b0       $SG20677                   00000001800335b0     c30_MASs.obj
 0003:000035d4       $SG19886                   00000001800335d4     c30_MASs.obj
 0003:000035d8       $SG20678                   00000001800335d8     c30_MASs.obj
 0003:000035fc       $SG19893                   00000001800335fc     c30_MASs.obj
 0003:00003600       $SG20679                   0000000180033600     c30_MASs.obj
 0003:0000361c       $SG19894                   000000018003361c     c30_MASs.obj
 0003:00003620       $SG20680                   0000000180033620     c30_MASs.obj
 0003:0000363c       $SG19895                   000000018003363c     c30_MASs.obj
 0003:00003640       $SG20687                   0000000180033640     c30_MASs.obj
 0003:00003664       $SG19896                   0000000180033664     c30_MASs.obj
 0003:00003668       $SG20688                   0000000180033668     c30_MASs.obj
 0003:00003684       $SG19897                   0000000180033684     c30_MASs.obj
 0003:00003688       $SG20693                   0000000180033688     c30_MASs.obj
 0003:00003698       $SG20694                   0000000180033698     c30_MASs.obj
 0003:000036a8       $SG20695                   00000001800336a8     c30_MASs.obj
 0003:000036b0       $SG20696                   00000001800336b0     c30_MASs.obj
 0003:000036b8       $SG20806                   00000001800336b8     c30_MASs.obj
 0003:000036d0       $SG20699                   00000001800336d0     c30_MASs.obj
 0003:00003758       $SG20731                   0000000180033758     c30_MASs.obj
 0003:00003768       $SG20896                   0000000180033768     c30_MASs.obj
 0003:00003790       $SG20700                   0000000180033790     c30_MASs.obj
 0003:00003818       $SG20919                   0000000180033818     c30_MASs.obj
 0003:00003828       $SG20920                   0000000180033828     c30_MASs.obj
 0003:0000383c       $SG19898                   000000018003383c     c30_MASs.obj
 0003:00003840       $SG19899                   0000000180033840     c30_MASs.obj
 0003:00003854       $SG20110                   0000000180033854     c30_MASs.obj
 0003:00003858       $SG19900                   0000000180033858     c30_MASs.obj
 0003:0000386c       $SG20211                   000000018003386c     c30_MASs.obj
 0003:00003870       $SG20930                   0000000180033870     c30_MASs.obj
 0003:000038a0       $SG20958                   00000001800338a0     c30_MASs.obj
 0003:00003900       $SG20154                   0000000180033900     c30_MASs.obj
 0003:00003910       ?c30_b_u@?1??c30_error@@9@9 0000000180033910     c30_MASs.obj
 0003:00003930       $SG20212                   0000000180033930     c30_MASs.obj
 0003:00003938       $SG20213                   0000000180033938     c30_MASs.obj
 0003:00003940       ?c30_b_u@?1??c30_b_error@@9@9 0000000180033940     c30_MASs.obj
 0003:00003960       ?c30_c_u@?1??c30_b_error@@9@9 0000000180033960     c30_MASs.obj
 0003:00003964       $SG20243                   0000000180033964     c30_MASs.obj
 0003:00003968       $SG20245                   0000000180033968     c30_MASs.obj
 0003:0000396c       $SG20298                   000000018003396c     c30_MASs.obj
 0003:00003970       $SG20246                   0000000180033970     c30_MASs.obj
 0003:00003978       $SG20247                   0000000180033978     c30_MASs.obj
 0003:00003980       ?c30_b_u@?1??c30_c_error@@9@9 0000000180033980     c30_MASs.obj
 0003:000039a0       ?c30_c_u@?1??c30_c_error@@9@9 00000001800339a0     c30_MASs.obj
 0003:000039a8       $SG20300                   00000001800339a8     c30_MASs.obj
 0003:000039ac       $SG20330                   00000001800339ac     c30_MASs.obj
 0003:000039b0       $SG20301                   00000001800339b0     c30_MASs.obj
 0003:000039b8       $SG20302                   00000001800339b8     c30_MASs.obj
 0003:000039c0       $SG20427                   00000001800339c0     c30_MASs.obj
 0003:000039cc       $SG20429                   00000001800339cc     c30_MASs.obj
 0003:000039d8       $SG20428                   00000001800339d8     c30_MASs.obj
 0003:000039e4       $SG20430                   00000001800339e4     c30_MASs.obj
 0003:000039f0       $SG20431                   00000001800339f0     c30_MASs.obj
 0003:00003a00       $SG20432                   0000000180033a00     c30_MASs.obj
 0003:00003a10       $SG20433                   0000000180033a10     c30_MASs.obj
 0003:00003a18       $SG20434                   0000000180033a18     c30_MASs.obj
 0003:00003a20       $SG20435                   0000000180033a20     c30_MASs.obj
 0003:00003a28       $SG20436                   0000000180033a28     c30_MASs.obj
 0003:00003a30       $SG20437                   0000000180033a30     c30_MASs.obj
 0003:00003a40       $SG20438                   0000000180033a40     c30_MASs.obj
 0003:00003a50       $SG20441                   0000000180033a50     c30_MASs.obj
 0003:00003a68       $SG20442                   0000000180033a68     c30_MASs.obj
 0003:00003a74       $SG20444                   0000000180033a74     c30_MASs.obj
 0003:00003a7c       $SG20445                   0000000180033a7c     c30_MASs.obj
 0003:00003a84       $SG20446                   0000000180033a84     c30_MASs.obj
 0003:00003a8c       $SG20447                   0000000180033a8c     c30_MASs.obj
 0003:00003a98       $SG20448                   0000000180033a98     c30_MASs.obj
 0003:00003aa8       $SG20449                   0000000180033aa8     c30_MASs.obj
 0003:00003ab4       $SG20453                   0000000180033ab4     c30_MASs.obj
 0003:00003abc       $SG20455                   0000000180033abc     c30_MASs.obj
 0003:00003ac4       $SG20456                   0000000180033ac4     c30_MASs.obj
 0003:00003acc       $SG20457                   0000000180033acc     c30_MASs.obj
 0003:00003ad4       $SG20458                   0000000180033ad4     c30_MASs.obj
 0003:00003ae0       $SG20459                   0000000180033ae0     c30_MASs.obj
 0003:00003af8       $SG20460                   0000000180033af8     c30_MASs.obj
 0003:00003b0c       $SG20462                   0000000180033b0c     c30_MASs.obj
 0003:00003b14       $SG20463                   0000000180033b14     c30_MASs.obj
 0003:00003b20       $SG20464                   0000000180033b20     c30_MASs.obj
 0003:00003b34       $SG20465                   0000000180033b34     c30_MASs.obj
 0003:00003b40       $SG20466                   0000000180033b40     c30_MASs.obj
 0003:00003b4c       $SG20469                   0000000180033b4c     c30_MASs.obj
 0003:00003b54       $SG20471                   0000000180033b54     c30_MASs.obj
 0003:00003b5c       $SG20472                   0000000180033b5c     c30_MASs.obj
 0003:00003b64       $SG20473                   0000000180033b64     c30_MASs.obj
 0003:00003b6c       $SG20474                   0000000180033b6c     c30_MASs.obj
 0003:00003b78       $SG20475                   0000000180033b78     c30_MASs.obj
 0003:00003b90       $SG20476                   0000000180033b90     c30_MASs.obj
 0003:00003ba4       $SG20478                   0000000180033ba4     c30_MASs.obj
 0003:00003bac       $SG20479                   0000000180033bac     c30_MASs.obj
 0003:00003bc0       $SG20480                   0000000180033bc0     c37_MASs.obj
 0003:00003bd4       $SG20481                   0000000180033bd4     c37_MASs.obj
 0003:00003bdc       $SG20489                   0000000180033bdc     c37_MASs.obj
 0003:00003be4       $SG20579                   0000000180033be4     c37_MASs.obj
 0003:00003bec       $SG19630                   0000000180033bec     c37_MASs.obj
 0003:00003bf0       $SG20482                   0000000180033bf0     c37_MASs.obj
 0003:00003bfc       $SG20485                   0000000180033bfc     c37_MASs.obj
 0003:00003c04       $SG20487                   0000000180033c04     c37_MASs.obj
 0003:00003c0c       $SG20488                   0000000180033c0c     c37_MASs.obj
 0003:00003c14       $SG20490                   0000000180033c14     c37_MASs.obj
 0003:00003c1c       $SG20638                   0000000180033c1c     c37_MASs.obj
 0003:00003c24       $SG19631                   0000000180033c24     c37_MASs.obj
 0003:00003c28       $SG20491                   0000000180033c28     c37_MASs.obj
 0003:00003c3c       $SG20495                   0000000180033c3c     c37_MASs.obj
 0003:00003c44       $SG19632                   0000000180033c44     c37_MASs.obj
 0003:00003c48       $SG20492                   0000000180033c48     c37_MASs.obj
 0003:00003c5c       $SG20494                   0000000180033c5c     c37_MASs.obj
 0003:00003c64       $SG20505                   0000000180033c64     c37_MASs.obj
 0003:00003c6c       $SG19633                   0000000180033c6c     c37_MASs.obj
 0003:00003c70       $SG20496                   0000000180033c70     c37_MASs.obj
 0003:00003c84       $SG20497                   0000000180033c84     c37_MASs.obj
 0003:00003c8c       $SG20506                   0000000180033c8c     c37_MASs.obj
 0003:00003c94       $SG19634                   0000000180033c94     c37_MASs.obj
 0003:00003c98       $SG20498                   0000000180033c98     c37_MASs.obj
 0003:00003ca4       $SG20501                   0000000180033ca4     c37_MASs.obj
 0003:00003cac       $SG20503                   0000000180033cac     c37_MASs.obj
 0003:00003cb4       $SG20504                   0000000180033cb4     c37_MASs.obj
 0003:00003cbc       $SG20511                   0000000180033cbc     c37_MASs.obj
 0003:00003cc4       $SG19635                   0000000180033cc4     c37_MASs.obj
 0003:00003cc8       $SG20507                   0000000180033cc8     c37_MASs.obj
 0003:00003cdc       $SG20521                   0000000180033cdc     c37_MASs.obj
 0003:00003ce4       $SG19636                   0000000180033ce4     c37_MASs.obj
 0003:00003ce8       $SG20508                   0000000180033ce8     c37_MASs.obj
 0003:00003cfc       $SG20510                   0000000180033cfc     c37_MASs.obj
 0003:00003d04       $SG20522                   0000000180033d04     c37_MASs.obj
 0003:00003d0c       $SG20661                   0000000180033d0c     c37_MASs.obj
 0003:00003d10       $SG20512                   0000000180033d10     c37_MASs.obj
 0003:00003d24       $SG20513                   0000000180033d24     c37_MASs.obj
 0003:00003d2c       $SG20527                   0000000180033d2c     c37_MASs.obj
 0003:00003d34       $SG19637                   0000000180033d34     c37_MASs.obj
 0003:00003d38       $SG20514                   0000000180033d38     c37_MASs.obj
 0003:00003d44       $SG20517                   0000000180033d44     c37_MASs.obj
 0003:00003d4c       $SG20519                   0000000180033d4c     c37_MASs.obj
 0003:00003d54       $SG20520                   0000000180033d54     c37_MASs.obj
 0003:00003d5c       $SG20537                   0000000180033d5c     c37_MASs.obj
 0003:00003d64       $SG19639                   0000000180033d64     c37_MASs.obj
 0003:00003d68       $SG20523                   0000000180033d68     c37_MASs.obj
 0003:00003d7c       $SG20538                   0000000180033d7c     c37_MASs.obj
 0003:00003d84       $SG19640                   0000000180033d84     c37_MASs.obj
 0003:00003d88       $SG20524                   0000000180033d88     c37_MASs.obj
 0003:00003d9c       $SG20526                   0000000180033d9c     c37_MASs.obj
 0003:00003da4       $SG20543                   0000000180033da4     c37_MASs.obj
 0003:00003dac       $SG19641                   0000000180033dac     c37_MASs.obj
 0003:00003db0       $SG20528                   0000000180033db0     c37_MASs.obj
 0003:00003dc4       $SG20529                   0000000180033dc4     c37_MASs.obj
 0003:00003dcc       $SG20553                   0000000180033dcc     c37_MASs.obj
 0003:00003dd4       $SG19642                   0000000180033dd4     c37_MASs.obj
 0003:00003dd8       $SG20530                   0000000180033dd8     c37_MASs.obj
 0003:00003de4       $SG20533                   0000000180033de4     c37_MASs.obj
 0003:00003dec       $SG20535                   0000000180033dec     c37_MASs.obj
 0003:00003df4       $SG20536                   0000000180033df4     c37_MASs.obj
 0003:00003dfc       $SG20554                   0000000180033dfc     c37_MASs.obj
 0003:00003e04       $SG19643                   0000000180033e04     c37_MASs.obj
 0003:00003e08       $SG20539                   0000000180033e08     c37_MASs.obj
 0003:00003e1c       $SG20559                   0000000180033e1c     c37_MASs.obj
 0003:00003e24       $SG19645                   0000000180033e24     c37_MASs.obj
 0003:00003e28       $SG20540                   0000000180033e28     c37_MASs.obj
 0003:00003e3c       $SG20542                   0000000180033e3c     c37_MASs.obj
 0003:00003e44       $SG20569                   0000000180033e44     c37_MASs.obj
 0003:00003e4c       $SG19646                   0000000180033e4c     c37_MASs.obj
 0003:00003e50       $SG20544                   0000000180033e50     c37_MASs.obj
 0003:00003e64       $SG20545                   0000000180033e64     c37_MASs.obj
 0003:00003e6c       $SG20570                   0000000180033e6c     c37_MASs.obj
 0003:00003e74       $SG19647                   0000000180033e74     c37_MASs.obj
 0003:00003e78       $SG20546                   0000000180033e78     c37_MASs.obj
 0003:00003e84       $SG20549                   0000000180033e84     c37_MASs.obj
 0003:00003e8c       $SG20551                   0000000180033e8c     c37_MASs.obj
 0003:00003e94       $SG20552                   0000000180033e94     c37_MASs.obj
 0003:00003e9c       $SG20575                   0000000180033e9c     c37_MASs.obj
 0003:00003ea4       $SG19648                   0000000180033ea4     c37_MASs.obj
 0003:00003ea8       $SG20555                   0000000180033ea8     c37_MASs.obj
 0003:00003ebc       $SG20595                   0000000180033ebc     c37_MASs.obj
 0003:00003ec4       $SG19649                   0000000180033ec4     c37_MASs.obj
 0003:00003ec8       $SG20556                   0000000180033ec8     c37_MASs.obj
 0003:00003edc       $SG20558                   0000000180033edc     c37_MASs.obj
 0003:00003ee4       $SG20596                   0000000180033ee4     c37_MASs.obj
 0003:00003eec       $SG19650                   0000000180033eec     c37_MASs.obj
 0003:00003ef4       $SG19652                   0000000180033ef4     c37_MASs.obj
 0003:00003ef8       $SG20560                   0000000180033ef8     c37_MASs.obj
 0003:00003f0c       $SG20561                   0000000180033f0c     c37_MASs.obj
 0003:00003f14       $SG20601                   0000000180033f14     c37_MASs.obj
 0003:00003f1c       $SG19653                   0000000180033f1c     c37_MASs.obj
 0003:00003f20       $SG20562                   0000000180033f20     c37_MASs.obj
 0003:00003f2c       $SG20565                   0000000180033f2c     c37_MASs.obj
 0003:00003f34       $SG20567                   0000000180033f34     c37_MASs.obj
 0003:00003f3c       $SG20568                   0000000180033f3c     c37_MASs.obj
 0003:00003f44       $SG20611                   0000000180033f44     c37_MASs.obj
 0003:00003f4c       $SG19654                   0000000180033f4c     c37_MASs.obj
 0003:00003f50       $SG20571                   0000000180033f50     c37_MASs.obj
 0003:00003f64       $SG20612                   0000000180033f64     c37_MASs.obj
 0003:00003f6c       $SG19655                   0000000180033f6c     c37_MASs.obj
 0003:00003f70       $SG20572                   0000000180033f70     c37_MASs.obj
 0003:00003f84       $SG20574                   0000000180033f84     c37_MASs.obj
 0003:00003f8c       $SG20617                   0000000180033f8c     c37_MASs.obj
 0003:00003f94       $SG19656                   0000000180033f94     c37_MASs.obj
 0003:00003f98       $SG20576                   0000000180033f98     c37_MASs.obj
 0003:00003fac       $SG20577                   0000000180033fac     c37_MASs.obj
 0003:00003fb4       $SG20627                   0000000180033fb4     c37_MASs.obj
 0003:00003fbc       $SG19657                   0000000180033fbc     c37_MASs.obj
 0003:00003fc0       $SG20578                   0000000180033fc0     c37_MASs.obj
 0003:00003fcc       $SG19658                   0000000180033fcc     c37_MASs.obj
 0003:00003fd0       $SG20580                   0000000180033fd0     c37_MASs.obj
 0003:00003fdc       $SG20582                   0000000180033fdc     c37_MASs.obj
 0003:00003fe4       $SG20583                   0000000180033fe4     c37_MASs.obj
 0003:00003fec       $SG20584                   0000000180033fec     c37_MASs.obj
 0003:00003ff4       $SG20585                   0000000180033ff4     c37_MASs.obj
 0003:00003ffc       $SG20628                   0000000180033ffc     c37_MASs.obj
 0003:00004004       $SG19659                   0000000180034004     c37_MASs.obj
 0003:00004008       $SG20586                   0000000180034008     c37_MASs.obj
 0003:00004014       $SG19660                   0000000180034014     c37_MASs.obj
 0003:00004018       $SG20587                   0000000180034018     c37_MASs.obj
 0003:00004024       $SG20591                   0000000180034024     c37_MASs.obj
 0003:0000402c       $SG20593                   000000018003402c     c37_MASs.obj
 0003:00004034       $SG20594                   0000000180034034     c37_MASs.obj
 0003:0000403c       $SG20633                   000000018003403c     c37_MASs.obj
 0003:00004044       $SG19661                   0000000180034044     c37_MASs.obj
 0003:00004048       $SG20597                   0000000180034048     c37_MASs.obj
 0003:0000405c       $SG19662                   000000018003405c     c37_MASs.obj
 0003:00004060       $SG20598                   0000000180034060     c37_MASs.obj
 0003:00004074       $SG20600                   0000000180034074     c37_MASs.obj
 0003:0000407c       $SG20715                   000000018003407c     c37_MASs.obj
 0003:00004080       $SG20602                   0000000180034080     c37_MASs.obj
 0003:00004094       $SG20603                   0000000180034094     c37_MASs.obj
 0003:0000409c       $SG20716                   000000018003409c     c37_MASs.obj
 0003:000040a0       $SG20604                   00000001800340a0     c37_MASs.obj
 0003:000040ac       $SG20607                   00000001800340ac     c37_MASs.obj
 0003:000040b4       $SG20609                   00000001800340b4     c37_MASs.obj
 0003:000040bc       $SG20610                   00000001800340bc     c37_MASs.obj
 0003:000040c4       $SG20717                   00000001800340c4     c37_MASs.obj
 0003:000040c8       $SG20613                   00000001800340c8     c37_MASs.obj
 0003:000040dc       $SG20718                   00000001800340dc     c37_MASs.obj
 0003:000040e0       $SG20614                   00000001800340e0     c37_MASs.obj
 0003:000040f4       $SG20616                   00000001800340f4     c37_MASs.obj
 0003:000040fc       $SG20719                   00000001800340fc     c37_MASs.obj
 0003:00004100       $SG20618                   0000000180034100     c37_MASs.obj
 0003:00004114       $SG20619                   0000000180034114     c37_MASs.obj
 0003:0000411c       $SG20720                   000000018003411c     c37_MASs.obj
 0003:00004120       $SG20620                   0000000180034120     c37_MASs.obj
 0003:0000412c       $SG20623                   000000018003412c     c37_MASs.obj
 0003:00004134       $SG20625                   0000000180034134     c37_MASs.obj
 0003:0000413c       $SG20626                   000000018003413c     c37_MASs.obj
 0003:00004144       $SG20721                   0000000180034144     c37_MASs.obj
 0003:00004148       $SG20629                   0000000180034148     c37_MASs.obj
 0003:0000415c       $SG20722                   000000018003415c     c37_MASs.obj
 0003:00004160       $SG20630                   0000000180034160     c37_MASs.obj
 0003:00004174       $SG20632                   0000000180034174     c37_MASs.obj
 0003:0000417c       $SG20723                   000000018003417c     c37_MASs.obj
 0003:00004180       $SG20634                   0000000180034180     c37_MASs.obj
 0003:00004194       $SG20635                   0000000180034194     c37_MASs.obj
 0003:0000419c       $SG20724                   000000018003419c     c37_MASs.obj
 0003:000041a0       $SG20636                   00000001800341a0     c37_MASs.obj
 0003:000041ac       $SG20725                   00000001800341ac     c37_MASs.obj
 0003:000041b0       $SG20637                   00000001800341b0     c37_MASs.obj
 0003:000041b8       $SG20640                   00000001800341b8     c37_MASs.obj
 0003:000041c8       $SG20649                   00000001800341c8     c37_MASs.obj
 0003:000041d8       $SG20650                   00000001800341d8     c37_MASs.obj
 0003:000041e8       $SG20651                   00000001800341e8     c37_MASs.obj
 0003:000041f8       $SG20652                   00000001800341f8     c37_MASs.obj
 0003:00004208       $SG20653                   0000000180034208     c37_MASs.obj
 0003:00004220       c37_debug_family_names     0000000180034220     c37_MASs.obj
 0003:00004328       $SG20654                   0000000180034328     c37_MASs.obj
 0003:0000433c       $SG19880                   000000018003433c     c37_MASs.obj
 0003:00004340       $SG20655                   0000000180034340     c37_MASs.obj
 0003:00004358       $SG20656                   0000000180034358     c37_MASs.obj
 0003:00004370       $SG20657                   0000000180034370     c37_MASs.obj
 0003:00004384       $SG19882                   0000000180034384     c37_MASs.obj
 0003:00004388       $SG20658                   0000000180034388     c37_MASs.obj
 0003:0000439c       $SG19638                   000000018003439c     c37_MASs.obj
 0003:000043a4       $SG19884                   00000001800343a4     c37_MASs.obj
 0003:000043a8       $SG20663                   00000001800343a8     c37_MASs.obj
 0003:000043b8       $SG20665                   00000001800343b8     c37_MASs.obj
 0003:000043c0       $SG19644                   00000001800343c0     c37_MASs.obj
 0003:000043c8       $SG19651                   00000001800343c8     c37_MASs.obj
 0003:000043d0       $SG20677                   00000001800343d0     c37_MASs.obj
 0003:000043f4       $SG19886                   00000001800343f4     c37_MASs.obj
 0003:000043f8       $SG20678                   00000001800343f8     c37_MASs.obj
 0003:0000441c       $SG19893                   000000018003441c     c37_MASs.obj
 0003:00004420       $SG20679                   0000000180034420     c37_MASs.obj
 0003:0000443c       $SG19894                   000000018003443c     c37_MASs.obj
 0003:00004440       $SG20680                   0000000180034440     c37_MASs.obj
 0003:0000445c       $SG19895                   000000018003445c     c37_MASs.obj
 0003:00004460       $SG20687                   0000000180034460     c37_MASs.obj
 0003:00004484       $SG19896                   0000000180034484     c37_MASs.obj
 0003:00004488       $SG20688                   0000000180034488     c37_MASs.obj
 0003:000044a4       $SG19897                   00000001800344a4     c37_MASs.obj
 0003:000044a8       $SG20693                   00000001800344a8     c37_MASs.obj
 0003:000044b8       $SG20694                   00000001800344b8     c37_MASs.obj
 0003:000044c8       $SG20695                   00000001800344c8     c37_MASs.obj
 0003:000044d0       $SG20696                   00000001800344d0     c37_MASs.obj
 0003:000044d8       $SG20806                   00000001800344d8     c37_MASs.obj
 0003:000044f0       $SG20699                   00000001800344f0     c37_MASs.obj
 0003:00004578       $SG20731                   0000000180034578     c37_MASs.obj
 0003:00004588       $SG20896                   0000000180034588     c37_MASs.obj
 0003:000045b0       $SG20700                   00000001800345b0     c37_MASs.obj
 0003:00004638       $SG20919                   0000000180034638     c37_MASs.obj
 0003:00004648       $SG20920                   0000000180034648     c37_MASs.obj
 0003:0000465c       $SG19898                   000000018003465c     c37_MASs.obj
 0003:00004660       $SG19899                   0000000180034660     c37_MASs.obj
 0003:00004674       $SG20110                   0000000180034674     c37_MASs.obj
 0003:00004678       $SG19900                   0000000180034678     c37_MASs.obj
 0003:0000468c       $SG20211                   000000018003468c     c37_MASs.obj
 0003:00004690       $SG20930                   0000000180034690     c37_MASs.obj
 0003:000046c0       $SG20958                   00000001800346c0     c37_MASs.obj
 0003:00004720       $SG20154                   0000000180034720     c37_MASs.obj
 0003:00004730       ?c37_b_u@?1??c37_error@@9@9 0000000180034730     c37_MASs.obj
 0003:00004750       $SG20212                   0000000180034750     c37_MASs.obj
 0003:00004758       $SG20213                   0000000180034758     c37_MASs.obj
 0003:00004760       ?c37_b_u@?1??c37_b_error@@9@9 0000000180034760     c37_MASs.obj
 0003:00004780       ?c37_c_u@?1??c37_b_error@@9@9 0000000180034780     c37_MASs.obj
 0003:00004784       $SG20243                   0000000180034784     c37_MASs.obj
 0003:00004788       $SG20245                   0000000180034788     c37_MASs.obj
 0003:0000478c       $SG20298                   000000018003478c     c37_MASs.obj
 0003:00004790       $SG20246                   0000000180034790     c37_MASs.obj
 0003:00004798       $SG20247                   0000000180034798     c37_MASs.obj
 0003:000047a0       ?c37_b_u@?1??c37_c_error@@9@9 00000001800347a0     c37_MASs.obj
 0003:000047c0       ?c37_c_u@?1??c37_c_error@@9@9 00000001800347c0     c37_MASs.obj
 0003:000047c8       $SG20300                   00000001800347c8     c37_MASs.obj
 0003:000047cc       $SG20330                   00000001800347cc     c37_MASs.obj
 0003:000047d0       $SG20301                   00000001800347d0     c37_MASs.obj
 0003:000047d8       $SG20302                   00000001800347d8     c37_MASs.obj
 0003:000047e0       $SG20427                   00000001800347e0     c37_MASs.obj
 0003:000047ec       $SG20429                   00000001800347ec     c37_MASs.obj
 0003:000047f8       $SG20428                   00000001800347f8     c37_MASs.obj
 0003:00004804       $SG20430                   0000000180034804     c37_MASs.obj
 0003:00004810       $SG20431                   0000000180034810     c37_MASs.obj
 0003:00004820       $SG20432                   0000000180034820     c37_MASs.obj
 0003:00004830       $SG20433                   0000000180034830     c37_MASs.obj
 0003:00004838       $SG20434                   0000000180034838     c37_MASs.obj
 0003:00004840       $SG20435                   0000000180034840     c37_MASs.obj
 0003:00004848       $SG20436                   0000000180034848     c37_MASs.obj
 0003:00004850       $SG20437                   0000000180034850     c37_MASs.obj
 0003:00004860       $SG20438                   0000000180034860     c37_MASs.obj
 0003:00004870       $SG20441                   0000000180034870     c37_MASs.obj
 0003:00004888       $SG20442                   0000000180034888     c37_MASs.obj
 0003:00004894       $SG20444                   0000000180034894     c37_MASs.obj
 0003:0000489c       $SG20445                   000000018003489c     c37_MASs.obj
 0003:000048a4       $SG20446                   00000001800348a4     c37_MASs.obj
 0003:000048ac       $SG20447                   00000001800348ac     c37_MASs.obj
 0003:000048b8       $SG20448                   00000001800348b8     c37_MASs.obj
 0003:000048c8       $SG20449                   00000001800348c8     c37_MASs.obj
 0003:000048d4       $SG20453                   00000001800348d4     c37_MASs.obj
 0003:000048dc       $SG20455                   00000001800348dc     c37_MASs.obj
 0003:000048e4       $SG20456                   00000001800348e4     c37_MASs.obj
 0003:000048ec       $SG20457                   00000001800348ec     c37_MASs.obj
 0003:000048f4       $SG20458                   00000001800348f4     c37_MASs.obj
 0003:00004900       $SG20459                   0000000180034900     c37_MASs.obj
 0003:00004918       $SG20460                   0000000180034918     c37_MASs.obj
 0003:0000492c       $SG20462                   000000018003492c     c37_MASs.obj
 0003:00004934       $SG20463                   0000000180034934     c37_MASs.obj
 0003:00004940       $SG20464                   0000000180034940     c37_MASs.obj
 0003:00004954       $SG20465                   0000000180034954     c37_MASs.obj
 0003:00004960       $SG20466                   0000000180034960     c37_MASs.obj
 0003:0000496c       $SG20469                   000000018003496c     c37_MASs.obj
 0003:00004974       $SG20471                   0000000180034974     c37_MASs.obj
 0003:0000497c       $SG20472                   000000018003497c     c37_MASs.obj
 0003:00004984       $SG20473                   0000000180034984     c37_MASs.obj
 0003:0000498c       $SG20474                   000000018003498c     c37_MASs.obj
 0003:00004998       $SG20475                   0000000180034998     c37_MASs.obj
 0003:000049b0       $SG20476                   00000001800349b0     c37_MASs.obj
 0003:000049c4       $SG20478                   00000001800349c4     c37_MASs.obj
 0003:000049cc       $SG20479                   00000001800349cc     c37_MASs.obj
 0003:000049e0       $SG19462                   00000001800349e0     MASs_sfun_registry.obj
 0003:00004a10       $SG19469                   0000000180034a10     MASs_sfun_registry.obj
 0003:00004a3c       $SG19173                   0000000180034a3c     MASs_sfun_registry.obj
 0003:00004a40       $SG19474                   0000000180034a40     MASs_sfun_registry.obj
 0003:00004a70       $SG19482                   0000000180034a70     MASs_sfun_registry.obj
 0003:00004aa0       $SG17438                   0000000180034aa0     MASs_sfun_registry.obj
 0003:00004ab8       $SG19490                   0000000180034ab8     MASs_sfun_registry.obj
 0003:00004aec       $SG17552                   0000000180034aec     MASs_sfun_registry.obj
 0003:00004af4       $SG19246                   0000000180034af4     MASs_sfun_registry.obj
 0003:00004af8       $SG19495                   0000000180034af8     MASs_sfun_registry.obj
 0003:00004b30       $SG19503                   0000000180034b30     MASs_sfun_registry.obj
 0003:00004b60       $SG19509                   0000000180034b60     MASs_sfun_registry.obj
 0003:00004b88       $SG19514                   0000000180034b88     MASs_sfun_registry.obj
 0003:00004ba4       $SG17469                   0000000180034ba4     MASs_sfun_registry.obj
 0003:00004bb0       $SG19519                   0000000180034bb0     MASs_sfun_registry.obj
 0003:00004be0       $SG19524                   0000000180034be0     MASs_sfun_registry.obj
 0003:00004c00       $SG19529                   0000000180034c00     MASs_sfun_registry.obj
 0003:00004c20       $SG19534                   0000000180034c20     MASs_sfun_registry.obj
 0003:00004c40       $SG19539                   0000000180034c40     MASs_sfun_registry.obj
 0003:00004c68       $SG19544                   0000000180034c68     MASs_sfun_registry.obj
 0003:00004c90       $SG19549                   0000000180034c90     MASs_sfun_registry.obj
 0003:00004cb8       $SG18528                   0000000180034cb8     MASs_sfun_registry.obj
 0003:00004cf8       $SG18533                   0000000180034cf8     MASs_sfun_registry.obj
 0003:00004d28       $SG19558                   0000000180034d28     MASs_sfun_registry.obj
 0003:00004d48       $SG19563                   0000000180034d48     MASs_sfun_registry.obj
 0003:00004d70       $SG18538                   0000000180034d70     MASs_sfun_registry.obj
 0003:00004db8       $SG19567                   0000000180034db8     MASs_sfun_registry.obj
 0003:00004de0       $SG19575                   0000000180034de0     MASs_sfun_registry.obj
 0003:00004e08       $SG18552                   0000000180034e08     MASs_sfun_registry.obj
 0003:00004e40       $SG19582                   0000000180034e40     MASs_sfun_registry.obj
 0003:00004e68       $SG17553                   0000000180034e68     MASs_sfun_registry.obj
 0003:00004e7c       $SG17558                   0000000180034e7c     MASs_sfun_registry.obj
 0003:00004e88       $SG17559                   0000000180034e88     MASs_sfun_registry.obj
 0003:00004ea8       $SG17699                   0000000180034ea8     MASs_sfun_registry.obj
 0003:00004ed0       _sfcnName                  0000000180034ed0     MASs_sfun_registry.obj
 0003:00004ef0       $SG17716                   0000000180034ef0     MASs_sfun_registry.obj
 0003:00004f68       $SG18824                   0000000180034f68     MASs_sfun_registry.obj
 0003:00004fa8       $SG18832                   0000000180034fa8     MASs_sfun_registry.obj
 0003:00004fe0       $SG18846                   0000000180034fe0     MASs_sfun_registry.obj
 0003:00004ff8       $SG18011                   0000000180034ff8     MASs_sfun_registry.obj
 0003:00005000       $SG18012                   0000000180035000     MASs_sfun_registry.obj
 0003:00005010       $SG18033                   0000000180035010     MASs_sfun_registry.obj
 0003:00005020       $SG18057                   0000000180035020     MASs_sfun_registry.obj
 0003:0000502c       $SG18059                   000000018003502c     MASs_sfun_registry.obj
 0003:00005038       $SG18062                   0000000180035038     MASs_sfun_registry.obj
 0003:00005048       $SG19170                   0000000180035048     MASs_sfun_registry.obj
 0003:00005088       $SG19192                   0000000180035088     MASs_sfun_registry.obj
 0003:00005090       $SG19193                   0000000180035090     MASs_sfun_registry.obj
 0003:00005098       $SG19194                   0000000180035098     MASs_sfun_registry.obj
 0003:000050a0       $SG19195                   00000001800350a0     MASs_sfun_registry.obj
 0003:00005108       $SG17147                   0000000180035108     MASs_sfun_registry.obj
 0003:00005120       $SG19198                   0000000180035120     MASs_sfun_registry.obj
 0003:00005160       $SG19200                   0000000180035160     MASs_sfun_registry.obj
 0003:00005168       $SG17152                   0000000180035168     MASs_sfun_registry.obj
 0003:00005170       $SG19203                   0000000180035170     MASs_sfun_registry.obj
 0003:00005178       $SG19206                   0000000180035178     MASs_sfun_registry.obj
 0003:00005180       $SG19208                   0000000180035180     MASs_sfun_registry.obj
 0003:000051b0       $SG19210                   00000001800351b0     MASs_sfun_registry.obj
 0003:000051c0       $SG17181                   00000001800351c0     MASs_sfun_registry.obj
 0003:000051dc       $SG17186                   00000001800351dc     MASs_sfun_registry.obj
 0003:000051e8       $SG19238                   00000001800351e8     MASs_sfun_registry.obj
 0003:000051f4       $SG19240                   00000001800351f4     MASs_sfun_registry.obj
 0003:000051fc       $SG19242                   00000001800351fc     MASs_sfun_registry.obj
 0003:00005208       $SG19244                   0000000180035208     MASs_sfun_registry.obj
 0003:00005218       $SG19271                   0000000180035218     MASs_sfun_registry.obj
 0003:00005250       $SG19252                   0000000180035250     MASs_sfun_registry.obj
 0003:000052f8       $SG17219                   00000001800352f8     MASs_sfun_registry.obj
 0003:00005314       $SG17224                   0000000180035314     MASs_sfun_registry.obj
 0003:00005320       $SG19274                   0000000180035320     MASs_sfun_registry.obj
 0003:00005350       $SG19278                   0000000180035350     MASs_sfun_registry.obj
 0003:00005398       $SG17257                   0000000180035398     MASs_sfun_registry.obj
 0003:000053b0       $SG19284                   00000001800353b0     MASs_sfun_registry.obj
 0003:000053f8       $SG19287                   00000001800353f8     MASs_sfun_registry.obj
 0003:00005418       $SG19307                   0000000180035418     MASs_sfun_registry.obj
 0003:00005420       $SG19309                   0000000180035420     MASs_sfun_registry.obj
 0003:00005434       $SG17262                   0000000180035434     MASs_sfun_registry.obj
 0003:00005440       $SG19311                   0000000180035440     MASs_sfun_registry.obj
 0003:000054e0       $SG18310                   00000001800354e0     MASs_sfun_registry.obj
 0003:00005550       $SG17295                   0000000180035550     MASs_sfun_registry.obj
 0003:00005570       $SG18320                   0000000180035570     MASs_sfun_registry.obj
 0003:000055e0       $SG17300                   00000001800355e0     MASs_sfun_registry.obj
 0003:000055e8       $SG17333                   00000001800355e8     MASs_sfun_registry.obj
 0003:00005608       $SG19384                   0000000180035608     MASs_sfun_registry.obj
 0003:00005638       $SG17338                   0000000180035638     MASs_sfun_registry.obj
 0003:00005640       $SG19392                   0000000180035640     MASs_sfun_registry.obj
 0003:00005668       $SG19400                   0000000180035668     MASs_sfun_registry.obj
 0003:00005698       $SG19409                   0000000180035698     MASs_sfun_registry.obj
 0003:000056c8       $SG19418                   00000001800356c8     MASs_sfun_registry.obj
 0003:00005700       $SG17370                   0000000180035700     MASs_sfun_registry.obj
 0003:00005718       $SG19423                   0000000180035718     MASs_sfun_registry.obj
 0003:0000574c       $SG17375                   000000018003574c     MASs_sfun_registry.obj
 0003:00005758       $SG19431                   0000000180035758     MASs_sfun_registry.obj
 0003:00005790       $SG19439                   0000000180035790     MASs_sfun_registry.obj
 0003:000057c8       $SG17393                   00000001800357c8     MASs_sfun_registry.obj
 0003:000057d8       $SG19447                   00000001800357d8     MASs_sfun_registry.obj
 0003:00005808       $SG19455                   0000000180035808     MASs_sfun_registry.obj
 0003:00005860       sRtwOptimizationInfoStruct 0000000180035860     MASs_sfun.obj
 0003:00005868       $SG20667                   0000000180035868     c9_MASs.obj
 0003:00005869       $SG20669                   0000000180035869     c9_MASs.obj
 0003:0000586a       $SG20684                   000000018003586a     c9_MASs.obj
 0003:00005870       _sfTime_                   0000000180035870     c9_MASs.obj
 0003:00005878       $SG20667                   0000000180035878     c16_MASs.obj
 0003:00005879       $SG20669                   0000000180035879     c16_MASs.obj
 0003:0000587a       $SG20684                   000000018003587a     c16_MASs.obj
 0003:00005880       _sfTime_                   0000000180035880     c16_MASs.obj
 0003:00005888       $SG20667                   0000000180035888     c23_MASs.obj
 0003:00005889       $SG20669                   0000000180035889     c23_MASs.obj
 0003:0000588a       $SG20684                   000000018003588a     c23_MASs.obj
 0003:00005890       _sfTime_                   0000000180035890     c23_MASs.obj
 0003:00005898       $SG20667                   0000000180035898     c30_MASs.obj
 0003:00005899       $SG20669                   0000000180035899     c30_MASs.obj
 0003:0000589a       $SG20684                   000000018003589a     c30_MASs.obj
 0003:000058a0       _sfTime_                   00000001800358a0     c30_MASs.obj
 0003:000058a8       $SG20667                   00000001800358a8     c37_MASs.obj
 0003:000058a9       $SG20669                   00000001800358a9     c37_MASs.obj
 0003:000058aa       $SG20684                   00000001800358aa     c37_MASs.obj
 0003:000058b0       _sfTime_                   00000001800358b0     c37_MASs.obj
 0003:000058c0       sfGlobalMdlStartCallCounts 00000001800358c0     MASs_sfun_registry.obj
 0003:000058c4       $SG19187                   00000001800358c4     MASs_sfun_registry.obj
 0003:000058d0       ?errmsg@?O@??ssWriteRTWWorkVect@@9@9 00000001800358d0     MASs_sfun_registry.obj
 0003:000059a0       GS_ExceptionRecord         00000001800359a0     MSVCRT:gs_report.obj
 0003:00005a40       GS_ContextRecord           0000000180035a40     MSVCRT:gs_report.obj
 0003:00005f10       DebuggerWasPresent         0000000180035f10     MSVCRT:gs_report.obj
 0003:00005f14       __proc_attached            0000000180035f14     MSVCRT:crtdll.obj
 0004:00000000       $pdata$load_MASs_optimization_info 0000000180036000     MASs_sfun.obj
 0004:0000000c       $pdata$unload_MASs_optimization_info 000000018003600c     MASs_sfun.obj
 0004:00000018       $pdata$sf_MASs_method_dispatcher 0000000180036018     MASs_sfun.obj
 0004:00000024       $pdata$sf_MASs_uses_exported_functions 0000000180036024     MASs_sfun.obj
 0004:00000030       $pdata$sf_MASs_process_check_sum_call 0000000180036030     MASs_sfun.obj
 0004:0000003c       $pdata$sf_MASs_autoinheritance_info 000000018003603c     MASs_sfun.obj
 0004:00000048       $pdata$sf_MASs_get_eml_resolved_functions_info 0000000180036048     MASs_sfun.obj
 0004:00000054       $pdata$sf_MASs_third_party_uses_info 0000000180036054     MASs_sfun.obj
 0004:00000060       $pdata$sf_MASs_jit_fallback_info 0000000180036060     MASs_sfun.obj
 0004:0000006c       $pdata$sf_MASs_updateBuildInfo_args_info 000000018003606c     MASs_sfun.obj
 0004:00000078       $pdata$sf_MASs_get_post_codegen_info 0000000180036078     MASs_sfun.obj
 0004:00000084       $pdata$MASs_debug_initialize 0000000180036084     MASs_sfun.obj
 0004:00000090       $pdata$sf_c9_MASs_get_eml_resolved_functions_info 0000000180036090     c9_MASs.obj
 0004:0000009c       $pdata$sf_c9_MASs_get_check_sum 000000018003609c     c9_MASs.obj
 0004:000000a8       $pdata$c9_MASs_method_dispatcher 00000001800360a8     c9_MASs.obj
 0004:000000b4       $pdata$chart_debug_initialization 00000001800360b4     c9_MASs.obj
 0004:000000c0       $pdata$chart_debug_initialize_data_addresses 00000001800360c0     c9_MASs.obj
 0004:000000cc       $pdata$initialize_c9_MASs  00000001800360cc     c9_MASs.obj
 0004:000000d8       $pdata$enable_c9_MASs      00000001800360d8     c9_MASs.obj
 0004:000000e4       $pdata$disable_c9_MASs     00000001800360e4     c9_MASs.obj
 0004:000000f0       $pdata$get_sim_state_c9_MASs 00000001800360f0     c9_MASs.obj
 0004:000000fc       $pdata$set_sim_state_c9_MASs 00000001800360fc     c9_MASs.obj
 0004:00000108       $pdata$sf_gateway_c9_MASs  0000000180036108     c9_MASs.obj
 0004:00000114       $pdata$c9_chartstep_c9_MASs 0000000180036114     c9_MASs.obj
 0004:00000120       $pdata$c9_sf_marshallOut   0000000180036120     c9_MASs.obj
 0004:0000012c       $pdata$c9_emlrt_marshallIn 000000018003612c     c9_MASs.obj
 0004:00000138       $pdata$c9_b_emlrt_marshallIn 0000000180036138     c9_MASs.obj
 0004:00000144       $pdata$c9_sf_marshallIn    0000000180036144     c9_MASs.obj
 0004:00000150       $pdata$c9_mpower           0000000180036150     c9_MASs.obj
 0004:0000015c       $pdata$c9_fltpower_domain_error 000000018003615c     c9_MASs.obj
 0004:00000168       $pdata$c9_error            0000000180036168     c9_MASs.obj
 0004:00000174       $pdata$c9_b_mpower         0000000180036174     c9_MASs.obj
 0004:00000180       $pdata$c9_b_error          0000000180036180     c9_MASs.obj
 0004:0000018c       $pdata$c9_c_mpower         000000018003618c     c9_MASs.obj
 0004:00000198       $pdata$c9_d_mpower         0000000180036198     c9_MASs.obj
 0004:000001a4       $pdata$c9_c_error          00000001800361a4     c9_MASs.obj
 0004:000001b0       $pdata$c9_e_mpower         00000001800361b0     c9_MASs.obj
 0004:000001bc       $pdata$c9_d_emlrt_marshallIn 00000001800361bc     c9_MASs.obj
 0004:000001c8       $pdata$c9_e_emlrt_marshallIn 00000001800361c8     c9_MASs.obj
 0004:000001d4       $pdata$c9_b_log10          00000001800361d4     c9_MASs.obj
 0004:000001e0       $pdata$init_simulink_io_address 00000001800361e0     c9_MASs.obj
 0004:000001ec       $pdata$sf_c9_MASs_get_post_codegen_info 00000001800361ec     c9_MASs.obj
 0004:000001f8       $pdata$sf_c9_MASs_get_autoinheritance_info 00000001800361f8     c9_MASs.obj
 0004:00000204       $pdata$sf_c9_MASs_third_party_uses_info 0000000180036204     c9_MASs.obj
 0004:00000210       $pdata$sf_c9_MASs_jit_fallback_info 0000000180036210     c9_MASs.obj
 0004:0000021c       $pdata$sf_c9_MASs_updateBuildInfo_args_info 000000018003621c     c9_MASs.obj
 0004:00000228       $pdata$sf_get_sim_state_info_c9_MASs 0000000180036228     c9_MASs.obj
 0004:00000234       $pdata$sf_opaque_initialize_c9_MASs 0000000180036234     c9_MASs.obj
 0004:00000240       $pdata$sf_opaque_enable_c9_MASs 0000000180036240     c9_MASs.obj
 0004:0000024c       $pdata$sf_opaque_disable_c9_MASs 000000018003624c     c9_MASs.obj
 0004:00000258       $pdata$sf_opaque_gateway_c9_MASs 0000000180036258     c9_MASs.obj
 0004:00000264       $pdata$sf_opaque_get_sim_state_c9_MASs 0000000180036264     c9_MASs.obj
 0004:00000270       $pdata$sf_opaque_set_sim_state_c9_MASs 0000000180036270     c9_MASs.obj
 0004:0000027c       $pdata$sf_opaque_terminate_c9_MASs 000000018003627c     c9_MASs.obj
 0004:00000288       $pdata$mdlProcessParameters_c9_MASs 0000000180036288     c9_MASs.obj
 0004:00000294       $pdata$mdlSetWorkWidths_c9_MASs 0000000180036294     c9_MASs.obj
 0004:000002a0       $pdata$mdlRTW_c9_MASs      00000001800362a0     c9_MASs.obj
 0004:000002ac       $pdata$mdlStart_c9_MASs    00000001800362ac     c9_MASs.obj
 0004:000002b8       $pdata$sf_c16_MASs_get_eml_resolved_functions_info 00000001800362b8     c16_MASs.obj
 0004:000002c4       $pdata$sf_c16_MASs_get_check_sum 00000001800362c4     c16_MASs.obj
 0004:000002d0       $pdata$c16_MASs_method_dispatcher 00000001800362d0     c16_MASs.obj
 0004:000002dc       $pdata$chart_debug_initialization 00000001800362dc     c16_MASs.obj
 0004:000002e8       $pdata$chart_debug_initialize_data_addresses 00000001800362e8     c16_MASs.obj
 0004:000002f4       $pdata$initialize_c16_MASs 00000001800362f4     c16_MASs.obj
 0004:00000300       $pdata$enable_c16_MASs     0000000180036300     c16_MASs.obj
 0004:0000030c       $pdata$disable_c16_MASs    000000018003630c     c16_MASs.obj
 0004:00000318       $pdata$get_sim_state_c16_MASs 0000000180036318     c16_MASs.obj
 0004:00000324       $pdata$set_sim_state_c16_MASs 0000000180036324     c16_MASs.obj
 0004:00000330       $pdata$sf_gateway_c16_MASs 0000000180036330     c16_MASs.obj
 0004:0000033c       $pdata$c16_chartstep_c16_MASs 000000018003633c     c16_MASs.obj
 0004:00000348       $pdata$c16_sf_marshallOut  0000000180036348     c16_MASs.obj
 0004:00000354       $pdata$c16_emlrt_marshallIn 0000000180036354     c16_MASs.obj
 0004:00000360       $pdata$c16_b_emlrt_marshallIn 0000000180036360     c16_MASs.obj
 0004:0000036c       $pdata$c16_sf_marshallIn   000000018003636c     c16_MASs.obj
 0004:00000378       $pdata$c16_mpower          0000000180036378     c16_MASs.obj
 0004:00000384       $pdata$c16_fltpower_domain_error 0000000180036384     c16_MASs.obj
 0004:00000390       $pdata$c16_error           0000000180036390     c16_MASs.obj
 0004:0000039c       $pdata$c16_b_mpower        000000018003639c     c16_MASs.obj
 0004:000003a8       $pdata$c16_b_error         00000001800363a8     c16_MASs.obj
 0004:000003b4       $pdata$c16_c_mpower        00000001800363b4     c16_MASs.obj
 0004:000003c0       $pdata$c16_d_mpower        00000001800363c0     c16_MASs.obj
 0004:000003cc       $pdata$c16_c_error         00000001800363cc     c16_MASs.obj
 0004:000003d8       $pdata$c16_e_mpower        00000001800363d8     c16_MASs.obj
 0004:000003e4       $pdata$c16_d_emlrt_marshallIn 00000001800363e4     c16_MASs.obj
 0004:000003f0       $pdata$c16_e_emlrt_marshallIn 00000001800363f0     c16_MASs.obj
 0004:000003fc       $pdata$c16_b_log10         00000001800363fc     c16_MASs.obj
 0004:00000408       $pdata$init_simulink_io_address 0000000180036408     c16_MASs.obj
 0004:00000414       $pdata$sf_c16_MASs_get_post_codegen_info 0000000180036414     c16_MASs.obj
 0004:00000420       $pdata$sf_c16_MASs_get_autoinheritance_info 0000000180036420     c16_MASs.obj
 0004:0000042c       $pdata$sf_c16_MASs_third_party_uses_info 000000018003642c     c16_MASs.obj
 0004:00000438       $pdata$sf_c16_MASs_jit_fallback_info 0000000180036438     c16_MASs.obj
 0004:00000444       $pdata$sf_c16_MASs_updateBuildInfo_args_info 0000000180036444     c16_MASs.obj
 0004:00000450       $pdata$sf_get_sim_state_info_c16_MASs 0000000180036450     c16_MASs.obj
 0004:0000045c       $pdata$sf_opaque_initialize_c16_MASs 000000018003645c     c16_MASs.obj
 0004:00000468       $pdata$sf_opaque_enable_c16_MASs 0000000180036468     c16_MASs.obj
 0004:00000474       $pdata$sf_opaque_disable_c16_MASs 0000000180036474     c16_MASs.obj
 0004:00000480       $pdata$sf_opaque_gateway_c16_MASs 0000000180036480     c16_MASs.obj
 0004:0000048c       $pdata$sf_opaque_get_sim_state_c16_MASs 000000018003648c     c16_MASs.obj
 0004:00000498       $pdata$sf_opaque_set_sim_state_c16_MASs 0000000180036498     c16_MASs.obj
 0004:000004a4       $pdata$sf_opaque_terminate_c16_MASs 00000001800364a4     c16_MASs.obj
 0004:000004b0       $pdata$mdlProcessParameters_c16_MASs 00000001800364b0     c16_MASs.obj
 0004:000004bc       $pdata$mdlSetWorkWidths_c16_MASs 00000001800364bc     c16_MASs.obj
 0004:000004c8       $pdata$mdlRTW_c16_MASs     00000001800364c8     c16_MASs.obj
 0004:000004d4       $pdata$mdlStart_c16_MASs   00000001800364d4     c16_MASs.obj
 0004:000004e0       $pdata$sf_c23_MASs_get_eml_resolved_functions_info 00000001800364e0     c23_MASs.obj
 0004:000004ec       $pdata$sf_c23_MASs_get_check_sum 00000001800364ec     c23_MASs.obj
 0004:000004f8       $pdata$c23_MASs_method_dispatcher 00000001800364f8     c23_MASs.obj
 0004:00000504       $pdata$chart_debug_initialization 0000000180036504     c23_MASs.obj
 0004:00000510       $pdata$chart_debug_initialize_data_addresses 0000000180036510     c23_MASs.obj
 0004:0000051c       $pdata$initialize_c23_MASs 000000018003651c     c23_MASs.obj
 0004:00000528       $pdata$enable_c23_MASs     0000000180036528     c23_MASs.obj
 0004:00000534       $pdata$disable_c23_MASs    0000000180036534     c23_MASs.obj
 0004:00000540       $pdata$get_sim_state_c23_MASs 0000000180036540     c23_MASs.obj
 0004:0000054c       $pdata$set_sim_state_c23_MASs 000000018003654c     c23_MASs.obj
 0004:00000558       $pdata$sf_gateway_c23_MASs 0000000180036558     c23_MASs.obj
 0004:00000564       $pdata$c23_chartstep_c23_MASs 0000000180036564     c23_MASs.obj
 0004:00000570       $pdata$c23_sf_marshallOut  0000000180036570     c23_MASs.obj
 0004:0000057c       $pdata$c23_emlrt_marshallIn 000000018003657c     c23_MASs.obj
 0004:00000588       $pdata$c23_b_emlrt_marshallIn 0000000180036588     c23_MASs.obj
 0004:00000594       $pdata$c23_sf_marshallIn   0000000180036594     c23_MASs.obj
 0004:000005a0       $pdata$c23_mpower          00000001800365a0     c23_MASs.obj
 0004:000005ac       $pdata$c23_fltpower_domain_error 00000001800365ac     c23_MASs.obj
 0004:000005b8       $pdata$c23_error           00000001800365b8     c23_MASs.obj
 0004:000005c4       $pdata$c23_b_mpower        00000001800365c4     c23_MASs.obj
 0004:000005d0       $pdata$c23_b_error         00000001800365d0     c23_MASs.obj
 0004:000005dc       $pdata$c23_c_mpower        00000001800365dc     c23_MASs.obj
 0004:000005e8       $pdata$c23_d_mpower        00000001800365e8     c23_MASs.obj
 0004:000005f4       $pdata$c23_c_error         00000001800365f4     c23_MASs.obj
 0004:00000600       $pdata$c23_e_mpower        0000000180036600     c23_MASs.obj
 0004:0000060c       $pdata$c23_d_emlrt_marshallIn 000000018003660c     c23_MASs.obj
 0004:00000618       $pdata$c23_e_emlrt_marshallIn 0000000180036618     c23_MASs.obj
 0004:00000624       $pdata$c23_b_log10         0000000180036624     c23_MASs.obj
 0004:00000630       $pdata$init_simulink_io_address 0000000180036630     c23_MASs.obj
 0004:0000063c       $pdata$sf_c23_MASs_get_post_codegen_info 000000018003663c     c23_MASs.obj
 0004:00000648       $pdata$sf_c23_MASs_get_autoinheritance_info 0000000180036648     c23_MASs.obj
 0004:00000654       $pdata$sf_c23_MASs_third_party_uses_info 0000000180036654     c23_MASs.obj
 0004:00000660       $pdata$sf_c23_MASs_jit_fallback_info 0000000180036660     c23_MASs.obj
 0004:0000066c       $pdata$sf_c23_MASs_updateBuildInfo_args_info 000000018003666c     c23_MASs.obj
 0004:00000678       $pdata$sf_get_sim_state_info_c23_MASs 0000000180036678     c23_MASs.obj
 0004:00000684       $pdata$sf_opaque_initialize_c23_MASs 0000000180036684     c23_MASs.obj
 0004:00000690       $pdata$sf_opaque_enable_c23_MASs 0000000180036690     c23_MASs.obj
 0004:0000069c       $pdata$sf_opaque_disable_c23_MASs 000000018003669c     c23_MASs.obj
 0004:000006a8       $pdata$sf_opaque_gateway_c23_MASs 00000001800366a8     c23_MASs.obj
 0004:000006b4       $pdata$sf_opaque_get_sim_state_c23_MASs 00000001800366b4     c23_MASs.obj
 0004:000006c0       $pdata$sf_opaque_set_sim_state_c23_MASs 00000001800366c0     c23_MASs.obj
 0004:000006cc       $pdata$sf_opaque_terminate_c23_MASs 00000001800366cc     c23_MASs.obj
 0004:000006d8       $pdata$mdlProcessParameters_c23_MASs 00000001800366d8     c23_MASs.obj
 0004:000006e4       $pdata$mdlSetWorkWidths_c23_MASs 00000001800366e4     c23_MASs.obj
 0004:000006f0       $pdata$mdlRTW_c23_MASs     00000001800366f0     c23_MASs.obj
 0004:000006fc       $pdata$mdlStart_c23_MASs   00000001800366fc     c23_MASs.obj
 0004:00000708       $pdata$sf_c30_MASs_get_eml_resolved_functions_info 0000000180036708     c30_MASs.obj
 0004:00000714       $pdata$sf_c30_MASs_get_check_sum 0000000180036714     c30_MASs.obj
 0004:00000720       $pdata$c30_MASs_method_dispatcher 0000000180036720     c30_MASs.obj
 0004:0000072c       $pdata$chart_debug_initialization 000000018003672c     c30_MASs.obj
 0004:00000738       $pdata$chart_debug_initialize_data_addresses 0000000180036738     c30_MASs.obj
 0004:00000744       $pdata$initialize_c30_MASs 0000000180036744     c30_MASs.obj
 0004:00000750       $pdata$enable_c30_MASs     0000000180036750     c30_MASs.obj
 0004:0000075c       $pdata$disable_c30_MASs    000000018003675c     c30_MASs.obj
 0004:00000768       $pdata$get_sim_state_c30_MASs 0000000180036768     c30_MASs.obj
 0004:00000774       $pdata$set_sim_state_c30_MASs 0000000180036774     c30_MASs.obj
 0004:00000780       $pdata$sf_gateway_c30_MASs 0000000180036780     c30_MASs.obj
 0004:0000078c       $pdata$c30_chartstep_c30_MASs 000000018003678c     c30_MASs.obj
 0004:00000798       $pdata$c30_sf_marshallOut  0000000180036798     c30_MASs.obj
 0004:000007a4       $pdata$c30_emlrt_marshallIn 00000001800367a4     c30_MASs.obj
 0004:000007b0       $pdata$c30_b_emlrt_marshallIn 00000001800367b0     c30_MASs.obj
 0004:000007bc       $pdata$c30_sf_marshallIn   00000001800367bc     c30_MASs.obj
 0004:000007c8       $pdata$c30_mpower          00000001800367c8     c30_MASs.obj
 0004:000007d4       $pdata$c30_fltpower_domain_error 00000001800367d4     c30_MASs.obj
 0004:000007e0       $pdata$c30_error           00000001800367e0     c30_MASs.obj
 0004:000007ec       $pdata$c30_b_mpower        00000001800367ec     c30_MASs.obj
 0004:000007f8       $pdata$c30_b_error         00000001800367f8     c30_MASs.obj
 0004:00000804       $pdata$c30_c_mpower        0000000180036804     c30_MASs.obj
 0004:00000810       $pdata$c30_d_mpower        0000000180036810     c30_MASs.obj
 0004:0000081c       $pdata$c30_c_error         000000018003681c     c30_MASs.obj
 0004:00000828       $pdata$c30_e_mpower        0000000180036828     c30_MASs.obj
 0004:00000834       $pdata$c30_d_emlrt_marshallIn 0000000180036834     c30_MASs.obj
 0004:00000840       $pdata$c30_e_emlrt_marshallIn 0000000180036840     c30_MASs.obj
 0004:0000084c       $pdata$c30_b_log10         000000018003684c     c30_MASs.obj
 0004:00000858       $pdata$init_simulink_io_address 0000000180036858     c30_MASs.obj
 0004:00000864       $pdata$sf_c30_MASs_get_post_codegen_info 0000000180036864     c30_MASs.obj
 0004:00000870       $pdata$sf_c30_MASs_get_autoinheritance_info 0000000180036870     c30_MASs.obj
 0004:0000087c       $pdata$sf_c30_MASs_third_party_uses_info 000000018003687c     c30_MASs.obj
 0004:00000888       $pdata$sf_c30_MASs_jit_fallback_info 0000000180036888     c30_MASs.obj
 0004:00000894       $pdata$sf_c30_MASs_updateBuildInfo_args_info 0000000180036894     c30_MASs.obj
 0004:000008a0       $pdata$sf_get_sim_state_info_c30_MASs 00000001800368a0     c30_MASs.obj
 0004:000008ac       $pdata$sf_opaque_initialize_c30_MASs 00000001800368ac     c30_MASs.obj
 0004:000008b8       $pdata$sf_opaque_enable_c30_MASs 00000001800368b8     c30_MASs.obj
 0004:000008c4       $pdata$sf_opaque_disable_c30_MASs 00000001800368c4     c30_MASs.obj
 0004:000008d0       $pdata$sf_opaque_gateway_c30_MASs 00000001800368d0     c30_MASs.obj
 0004:000008dc       $pdata$sf_opaque_get_sim_state_c30_MASs 00000001800368dc     c30_MASs.obj
 0004:000008e8       $pdata$sf_opaque_set_sim_state_c30_MASs 00000001800368e8     c30_MASs.obj
 0004:000008f4       $pdata$sf_opaque_terminate_c30_MASs 00000001800368f4     c30_MASs.obj
 0004:00000900       $pdata$mdlProcessParameters_c30_MASs 0000000180036900     c30_MASs.obj
 0004:0000090c       $pdata$mdlSetWorkWidths_c30_MASs 000000018003690c     c30_MASs.obj
 0004:00000918       $pdata$mdlRTW_c30_MASs     0000000180036918     c30_MASs.obj
 0004:00000924       $pdata$mdlStart_c30_MASs   0000000180036924     c30_MASs.obj
 0004:00000930       $pdata$sf_c37_MASs_get_eml_resolved_functions_info 0000000180036930     c37_MASs.obj
 0004:0000093c       $pdata$sf_c37_MASs_get_check_sum 000000018003693c     c37_MASs.obj
 0004:00000948       $pdata$c37_MASs_method_dispatcher 0000000180036948     c37_MASs.obj
 0004:00000954       $pdata$chart_debug_initialization 0000000180036954     c37_MASs.obj
 0004:00000960       $pdata$chart_debug_initialize_data_addresses 0000000180036960     c37_MASs.obj
 0004:0000096c       $pdata$initialize_c37_MASs 000000018003696c     c37_MASs.obj
 0004:00000978       $pdata$enable_c37_MASs     0000000180036978     c37_MASs.obj
 0004:00000984       $pdata$disable_c37_MASs    0000000180036984     c37_MASs.obj
 0004:00000990       $pdata$get_sim_state_c37_MASs 0000000180036990     c37_MASs.obj
 0004:0000099c       $pdata$set_sim_state_c37_MASs 000000018003699c     c37_MASs.obj
 0004:000009a8       $pdata$sf_gateway_c37_MASs 00000001800369a8     c37_MASs.obj
 0004:000009b4       $pdata$c37_chartstep_c37_MASs 00000001800369b4     c37_MASs.obj
 0004:000009c0       $pdata$c37_sf_marshallOut  00000001800369c0     c37_MASs.obj
 0004:000009cc       $pdata$c37_emlrt_marshallIn 00000001800369cc     c37_MASs.obj
 0004:000009d8       $pdata$c37_b_emlrt_marshallIn 00000001800369d8     c37_MASs.obj
 0004:000009e4       $pdata$c37_sf_marshallIn   00000001800369e4     c37_MASs.obj
 0004:000009f0       $pdata$c37_mpower          00000001800369f0     c37_MASs.obj
 0004:000009fc       $pdata$c37_fltpower_domain_error 00000001800369fc     c37_MASs.obj
 0004:00000a08       $pdata$c37_error           0000000180036a08     c37_MASs.obj
 0004:00000a14       $pdata$c37_b_mpower        0000000180036a14     c37_MASs.obj
 0004:00000a20       $pdata$c37_b_error         0000000180036a20     c37_MASs.obj
 0004:00000a2c       $pdata$c37_c_mpower        0000000180036a2c     c37_MASs.obj
 0004:00000a38       $pdata$c37_d_mpower        0000000180036a38     c37_MASs.obj
 0004:00000a44       $pdata$c37_c_error         0000000180036a44     c37_MASs.obj
 0004:00000a50       $pdata$c37_e_mpower        0000000180036a50     c37_MASs.obj
 0004:00000a5c       $pdata$c37_d_emlrt_marshallIn 0000000180036a5c     c37_MASs.obj
 0004:00000a68       $pdata$c37_e_emlrt_marshallIn 0000000180036a68     c37_MASs.obj
 0004:00000a74       $pdata$c37_b_log10         0000000180036a74     c37_MASs.obj
 0004:00000a80       $pdata$init_simulink_io_address 0000000180036a80     c37_MASs.obj
 0004:00000a8c       $pdata$sf_c37_MASs_get_post_codegen_info 0000000180036a8c     c37_MASs.obj
 0004:00000a98       $pdata$sf_c37_MASs_get_autoinheritance_info 0000000180036a98     c37_MASs.obj
 0004:00000aa4       $pdata$sf_c37_MASs_third_party_uses_info 0000000180036aa4     c37_MASs.obj
 0004:00000ab0       $pdata$sf_c37_MASs_jit_fallback_info 0000000180036ab0     c37_MASs.obj
 0004:00000abc       $pdata$sf_c37_MASs_updateBuildInfo_args_info 0000000180036abc     c37_MASs.obj
 0004:00000ac8       $pdata$sf_get_sim_state_info_c37_MASs 0000000180036ac8     c37_MASs.obj
 0004:00000ad4       $pdata$sf_opaque_initialize_c37_MASs 0000000180036ad4     c37_MASs.obj
 0004:00000ae0       $pdata$sf_opaque_enable_c37_MASs 0000000180036ae0     c37_MASs.obj
 0004:00000aec       $pdata$sf_opaque_disable_c37_MASs 0000000180036aec     c37_MASs.obj
 0004:00000af8       $pdata$sf_opaque_gateway_c37_MASs 0000000180036af8     c37_MASs.obj
 0004:00000b04       $pdata$sf_opaque_get_sim_state_c37_MASs 0000000180036b04     c37_MASs.obj
 0004:00000b10       $pdata$sf_opaque_set_sim_state_c37_MASs 0000000180036b10     c37_MASs.obj
 0004:00000b1c       $pdata$sf_opaque_terminate_c37_MASs 0000000180036b1c     c37_MASs.obj
 0004:00000b28       $pdata$mdlProcessParameters_c37_MASs 0000000180036b28     c37_MASs.obj
 0004:00000b34       $pdata$mdlSetWorkWidths_c37_MASs 0000000180036b34     c37_MASs.obj
 0004:00000b40       $pdata$mdlRTW_c37_MASs     0000000180036b40     c37_MASs.obj
 0004:00000b4c       $pdata$mdlStart_c37_MASs   0000000180036b4c     c37_MASs.obj
 0004:00000b58       $pdata$mexFunction         0000000180036b58     MASs_sfun_registry.obj
 0004:00000b64       $pdata$_ssSetInputPortDirectFeedThroughFcn 0000000180036b64     MASs_sfun_registry.obj
 0004:00000b70       $pdata$_ssGetInputPortSignalPtrsFcn 0000000180036b70     MASs_sfun_registry.obj
 0004:00000b7c       $pdata$_ssGetInputPortSignalFcn 0000000180036b7c     MASs_sfun_registry.obj
 0004:00000b88       $pdata$_ssSetInputPortReusableFcn 0000000180036b88     MASs_sfun_registry.obj
 0004:00000b94       $pdata$_ssSetOutputPortReusableFcn 0000000180036b94     MASs_sfun_registry.obj
 0004:00000ba0       $pdata$_ssSetSymbolicDimsSupport 0000000180036ba0     MASs_sfun_registry.obj
 0004:00000bac       $pdata$_ssRegisterSymbolicDimsExpr 0000000180036bac     MASs_sfun_registry.obj
 0004:00000bb8       $pdata$_ssRegisterSymbolicDims 0000000180036bb8     MASs_sfun_registry.obj
 0004:00000bc4       $pdata$_ssRegisterSymbolicDimsString 0000000180036bc4     MASs_sfun_registry.obj
 0004:00000bd0       $pdata$_ssRegisterSymbolicDimsIntValue 0000000180036bd0     MASs_sfun_registry.obj
 0004:00000bdc       $pdata$_ssRegisterSymbolicDimsPlus 0000000180036bdc     MASs_sfun_registry.obj
 0004:00000be8       $pdata$_ssRegisterSymbolicDimsMinus 0000000180036be8     MASs_sfun_registry.obj
 0004:00000bf4       $pdata$_ssRegisterSymbolicDimsMultiply 0000000180036bf4     MASs_sfun_registry.obj
 0004:00000c00       $pdata$_ssRegisterSymbolicDimsDivide 0000000180036c00     MASs_sfun_registry.obj
 0004:00000c0c       $pdata$_ssGetNumSymbolicDims 0000000180036c0c     MASs_sfun_registry.obj
 0004:00000c18       $pdata$_ssGetSymbolicDim   0000000180036c18     MASs_sfun_registry.obj
 0004:00000c24       $pdata$_ssSetInputPortSymbolicDimsId 0000000180036c24     MASs_sfun_registry.obj
 0004:00000c30       $pdata$_ssGetCompInputPortSymbolicDimsId 0000000180036c30     MASs_sfun_registry.obj
 0004:00000c3c       $pdata$_ssSetCompInputPortSymbolicDimsId 0000000180036c3c     MASs_sfun_registry.obj
 0004:00000c48       $pdata$_ssSetOutputPortSymbolicDimsId 0000000180036c48     MASs_sfun_registry.obj
 0004:00000c54       $pdata$_ssGetCompOutputPortSymbolicDimsId 0000000180036c54     MASs_sfun_registry.obj
 0004:00000c60       $pdata$_ssSetCompOutputPortSymbolicDimsId 0000000180036c60     MASs_sfun_registry.obj
 0004:00000c6c       $pdata$_ssSetCompDWorkSymbolicDimsId 0000000180036c6c     MASs_sfun_registry.obj
 0004:00000c78       $pdata$ssGetIsZeroCrossControlDisabled 0000000180036c78     MASs_sfun_registry.obj
 0004:00000c84       $pdata$ssSetIsInputPortUsedForContZcSignal 0000000180036c84     MASs_sfun_registry.obj
 0004:00000c90       $pdata$ssSetZcSignalIsZcElementDisc 0000000180036c90     MASs_sfun_registry.obj
 0004:00000c9c       $pdata$ssSetZcSignalName   0000000180036c9c     MASs_sfun_registry.obj
 0004:00000ca8       $pdata$ssSetZcSignalWidth  0000000180036ca8     MASs_sfun_registry.obj
 0004:00000cb4       $pdata$ssSetZcSignalZcEventType 0000000180036cb4     MASs_sfun_registry.obj
 0004:00000cc0       $pdata$ssSetZcSignalType   0000000180036cc0     MASs_sfun_registry.obj
 0004:00000ccc       $pdata$ssSetZcSignalZcTol  0000000180036ccc     MASs_sfun_registry.obj
 0004:00000cd8       $pdata$ssSetZcSignalNeedsEventNotification 0000000180036cd8     MASs_sfun_registry.obj
 0004:00000ce4       $pdata$ssCreateAndAddZcSignalInfo 0000000180036ce4     MASs_sfun_registry.obj
 0004:00000cf0       $pdata$ssCloneAndAddZcSignalInfo 0000000180036cf0     MASs_sfun_registry.obj
 0004:00000cfc       $pdata$ssGetNumZcSignals   0000000180036cfc     MASs_sfun_registry.obj
 0004:00000d08       $pdata$ssGetZcSignalVector 0000000180036d08     MASs_sfun_registry.obj
 0004:00000d14       $pdata$ssGetZcSignalName   0000000180036d14     MASs_sfun_registry.obj
 0004:00000d20       $pdata$ssGetZcSignalWidth  0000000180036d20     MASs_sfun_registry.obj
 0004:00000d2c       $pdata$ssGetZcSignalZcEventType 0000000180036d2c     MASs_sfun_registry.obj
 0004:00000d38       $pdata$ssGetZcSignalZcEvents 0000000180036d38     MASs_sfun_registry.obj
 0004:00000d44       $pdata$ssGetZcSignalType   0000000180036d44     MASs_sfun_registry.obj
 0004:00000d50       $pdata$ssGetZcSignalZcTol  0000000180036d50     MASs_sfun_registry.obj
 0004:00000d5c       $pdata$ssGetZcSignalNeedsEventNotification 0000000180036d5c     MASs_sfun_registry.obj
 0004:00000d68       $pdata$ssGetZcSignalIsZcElementDisc 0000000180036d68     MASs_sfun_registry.obj
 0004:00000d74       $pdata$ssGetIsInputPortElementContinuous 0000000180036d74     MASs_sfun_registry.obj
 0004:00000d80       $pdata$ssGetDTypeIdFromMxArray 0000000180036d80     MASs_sfun_registry.obj
 0004:00000d8c       $pdata$ssWriteRTWStr       0000000180036d8c     MASs_sfun_registry.obj
 0004:00000d98       $pdata$ssWriteRTWNameValuePair 0000000180036d98     MASs_sfun_registry.obj
 0004:00000da4       $pdata$ssWriteRTWParamSettings 0000000180036da4     MASs_sfun_registry.obj
 0004:00000db0       $pdata$ssWriteRTWParameters 0000000180036db0     MASs_sfun_registry.obj
 0004:00000dbc       $pdata$ssWriteRTWWorkVect  0000000180036dbc     MASs_sfun_registry.obj
 0004:00000dc8       $pdata$ssWriteRTWMxVectParam 0000000180036dc8     MASs_sfun_registry.obj
 0004:00000dd4       $pdata$ssWriteRTWMx2dMatParam 0000000180036dd4     MASs_sfun_registry.obj
 0004:00000de0       $pdata$_ssSetInputPortMatrixDimensions 0000000180036de0     MASs_sfun_registry.obj
 0004:00000dec       $pdata$_ssSetOutputPortMatrixDimensions 0000000180036dec     MASs_sfun_registry.obj
 0004:00000df8       $pdata$_ssSetInputPortVectorDimension 0000000180036df8     MASs_sfun_registry.obj
 0004:00000e04       $pdata$_ssSetOutputPortVectorDimension 0000000180036e04     MASs_sfun_registry.obj
 0004:00000e10       $pdata$ssIsRunTimeParamTunable 0000000180036e10     MASs_sfun_registry.obj
 0004:00000e1c       $pdata$ssGetSFuncBlockHandle 0000000180036e1c     MASs_sfun_registry.obj
 0004:00000e28       $pdata$_ssGetCurrentInputPortWidth 0000000180036e28     MASs_sfun_registry.obj
 0004:00000e34       $pdata$_ssGetCurrentOutputPortWidth 0000000180036e34     MASs_sfun_registry.obj
 0004:00000e40       $pdata$_ssGetCallSystemNumFcnCallDestinations 0000000180036e40     MASs_sfun_registry.obj
 0004:00000e4c       $pdata$ssGetParameterTuningCompliance 0000000180036e4c     MASs_sfun_registry.obj
 0004:00000e58       $pdata$ssWarning           0000000180036e58     MASs_sfun_registry.obj
 0004:00000e64       $pdata$_ssGetAbsTol        0000000180036e64     MASs_sfun_registry.obj
 0004:00000e70       $pdata$sf_process_check_sum_call 0000000180036e70     MASs_sfun_registry.obj
 0004:00000e7c       $pdata$sf_process_machine_uses_exported_functions_call 0000000180036e7c     MASs_sfun_registry.obj
 0004:00000e88       $pdata$sf_process_autoinheritance_call 0000000180036e88     MASs_sfun_registry.obj
 0004:00000e94       $pdata$sf_process_get_third_party_uses_info_call 0000000180036e94     MASs_sfun_registry.obj
 0004:00000ea0       $pdata$sf_process_get_jit_fallback_info_call 0000000180036ea0     MASs_sfun_registry.obj
 0004:00000eac       $pdata$sf_process_get_updateBuildInfo_args_info_call 0000000180036eac     MASs_sfun_registry.obj
 0004:00000eb8       $pdata$sf_process_get_eml_resolved_functions_info_call 0000000180036eb8     MASs_sfun_registry.obj
 0004:00000ec4       $pdata$sf_process_get_post_codegen_info 0000000180036ec4     MASs_sfun_registry.obj
 0004:00000ed0       $pdata$sf_mex_unlock_call  0000000180036ed0     MASs_sfun_registry.obj
 0004:00000edc       $pdata$sf_debug_api_wrapper 0000000180036edc     MASs_sfun_registry.obj
 0004:00000ee8       $pdata$ProcessMexSfunctionCmdLineCall 0000000180036ee8     MASs_sfun_registry.obj
 0004:00000ef4       $pdata$sf_machine_global_initializer_called 0000000180036ef4     MASs_sfun_registry.obj
 0004:00000f00       $pdata$sf_machine_global_method_dispatcher 0000000180036f00     MASs_sfun_registry.obj
 0004:00000f0c       $pdata$sf_machine_global_terminator 0000000180036f0c     MASs_sfun_registry.obj
 0004:00000f18       $pdata$sf_register_machine_exported_symbols 0000000180036f18     MASs_sfun_registry.obj
 0004:00000f24       $pdata$sf_machine_global_initializer 0000000180036f24     MASs_sfun_registry.obj
 0004:00000f30       $pdata$mdlGetSimState      0000000180036f30     MASs_sfun_registry.obj
 0004:00000f3c       $pdata$mdlSetSimState      0000000180036f3c     MASs_sfun_registry.obj
 0004:00000f48       $pdata$mdlSetWorkWidths    0000000180036f48     MASs_sfun_registry.obj
 0004:00000f54       $pdata$mdlProcessParameters 0000000180036f54     MASs_sfun_registry.obj
 0004:00000f60       $pdata$mdl_start_processing 0000000180036f60     MASs_sfun_registry.obj
 0004:00000f6c       $pdata$mdl_terminate_processing 0000000180036f6c     MASs_sfun_registry.obj
 0004:00000f78       $pdata$mdlStart            0000000180036f78     MASs_sfun_registry.obj
 0004:00000f84       $pdata$mdlTerminate        0000000180036f84     MASs_sfun_registry.obj
 0004:00000f90       $pdata$mdlInitializeSizes  0000000180036f90     MASs_sfun_registry.obj
 0004:00000f9c       $pdata$mdlInitializeSampleTimes 0000000180036f9c     MASs_sfun_registry.obj
 0004:00000fa8       $pdata$mdl_outputs_continuous_legacy 0000000180036fa8     MASs_sfun_registry.obj
 0004:00000fb4       $pdata$mdl_outputs_processing 0000000180036fb4     MASs_sfun_registry.obj
 0004:00000fc0       $pdata$mdl_zeroCrossings_processing 0000000180036fc0     MASs_sfun_registry.obj
 0004:00000fcc       $pdata$mdlZeroCrossings    0000000180036fcc     MASs_sfun_registry.obj
 0004:00000fd8       $pdata$mdl_derivatives_processing 0000000180036fd8     MASs_sfun_registry.obj
 0004:00000fe4       $pdata$mdlDerivatives      0000000180036fe4     MASs_sfun_registry.obj
 0004:00000ff0       $pdata$mdl_initialize_conditions_processing 0000000180036ff0     MASs_sfun_registry.obj
 0004:00000ffc       $pdata$mdlInitializeConditions 0000000180036ffc     MASs_sfun_registry.obj
 0004:00001008       $pdata$mdl_ext_mode_exec_processing 0000000180037008     MASs_sfun_registry.obj
 0004:00001014       $pdata$mdlExtModeExec      0000000180037014     MASs_sfun_registry.obj
 0004:00001020       $pdata$mdlRTW              0000000180037020     MASs_sfun_registry.obj
 0004:0000102c       $pdata$mdl_enable_processing 000000018003702c     MASs_sfun_registry.obj
 0004:00001038       $pdata$mdlEnable           0000000180037038     MASs_sfun_registry.obj
 0004:00001044       $pdata$mdl_disable_processing 0000000180037044     MASs_sfun_registry.obj
 0004:00001050       $pdata$mdlDisable          0000000180037050     MASs_sfun_registry.obj
 0004:0000105c       $pdata$mdlOutputs          000000018003705c     MASs_sfun_registry.obj
 0004:00001068       $pdata$mdl_update_processing 0000000180037068     MASs_sfun_registry.obj
 0004:00001074       $pdata$mdlUpdate           0000000180037074     MASs_sfun_registry.obj
 0004:00001080       $pdata$ProcessMexSfunctionEveryCall 0000000180037080     MASs_sfun_registry.obj
 0004:0000108c       $pdata$_RegNumInputPortsCB 000000018003708c     MASs_sfun_registry.obj
 0004:00001098       $pdata$_RegNumOutputPortsCB 0000000180037098     MASs_sfun_registry.obj
 0004:000010a4       $pdata$_CreateSimStruct    00000001800370a4     MASs_sfun_registry.obj
 0004:000010b0       $pdata$_ssFatalError       00000001800370b0     MASs_sfun_registry.obj
 0004:000010bc       $pdata$_ProcessMexSfunctionCmdLineCall 00000001800370bc     MASs_sfun_registry.obj
 0004:000010c8       $pdata$__raise_securityfailure 00000001800370c8     MSVCRT:gs_report.obj
 0004:000010d4       $pdata$__report_gsfailure  00000001800370d4     MSVCRT:gs_report.obj
 0004:000010e0       $pdata$__report_rangecheckfailure 00000001800370e0     MSVCRT:gs_report.obj
 0004:000010ec       $pdata$__report_securityfailure 00000001800370ec     MSVCRT:gs_report.obj
 0004:000010f8       $pdata$__report_securityfailureEx 00000001800370f8     MSVCRT:gs_report.obj
 0004:00001104       $pdata$__GSHandlerCheck    0000000180037104     MSVCRT:gshandler.obj
 0004:00001110       $pdata$__GSHandlerCheckCommon 0000000180037110     MSVCRT:gshandler.obj
 0004:00001128       $pdata$pre_c_init          0000000180037128     MSVCRT:crtdll.obj
 0004:00001134       $pdata$_CRT_INIT           0000000180037134     MSVCRT:crtdll.obj
 0004:00001140       $pdata$_DllMainCRTStartup  0000000180037140     MSVCRT:crtdll.obj
 0004:0000114c       $pdata$__DllMainCRTStartup 000000018003714c     MSVCRT:crtdll.obj
 0004:00001158       $pdata$_IsNonwritableInCurrentImage 0000000180037158     MSVCRT:pesect.obj
 0004:00001164       $pdata$__atonexitinit      0000000180037164     MSVCRT:atonexit.obj
 0004:00001170       $pdata$_onexit             0000000180037170     MSVCRT:atonexit.obj
 0004:0000117c       $pdata$atexit              000000018003717c     MSVCRT:atonexit.obj
 0004:00001188       $pdata$__security_init_cookie 0000000180037188     MSVCRT:gs_support.obj
 0004:00001194       $pdata$DllMain             0000000180037194     MSVCRT:dllmain.obj
 0004:000011a0       $pdata$_RTC_Initialize     00000001800371a0     MSVCRT:initsect.obj
 0004:000011ac       $pdata$_RTC_Terminate      00000001800371ac     MSVCRT:initsect.obj
 0004:000011b8       $pdata$__DllMainCRTStartup$filt$0 00000001800371b8     MSVCRT:crtdll.obj
 0004:000011c4       $pdata$__DllMainCRTStartup$fin$1 00000001800371c4     MSVCRT:crtdll.obj
 0004:000011d0       $pdata$_IsNonwritableInCurrentImage$filt$0 00000001800371d0     MSVCRT:pesect.obj
 0004:000011dc       $pdata$_onexit$fin$0       00000001800371dc     MSVCRT:atonexit.obj
